
V203_AM32_PA0.elf:     file format elf32-littleriscv
V203_AM32_PA0.elf
architecture: riscv:rv32, flags 0x00000112:
EXEC_P, HAS_SYMS, D_PAGED
start address 0x00001000

Program Header:
0x70000003 off    0x00035b1d vaddr 0x00000000 paddr 0x00000000 align 2**0
         filesz 0x00000035 memsz 0x00000000 flags r--
    LOAD off    0x00001000 vaddr 0x00001000 paddr 0x00001000 align 2**12
         filesz 0x00000038 memsz 0x00000038 flags r-x
    LOAD off    0x000010c0 vaddr 0x000010c0 paddr 0x000010c0 align 2**12
         filesz 0x0000000e memsz 0x0000000e flags rw-
    LOAD off    0x000010ce vaddr 0x000010ce paddr 0x000010ce align 2**12
         filesz 0x0000552a memsz 0x0000552a flags r-x
    LOAD off    0x00007000 vaddr 0x20000000 paddr 0x000065f8 align 2**12
         filesz 0x000003e8 memsz 0x0000074c flags rw-
    LOAD off    0x00000700 vaddr 0x20004700 paddr 0x20004700 align 2**12
         filesz 0x00000000 memsz 0x00000900 flags rw-

Sections:
Idx Name          Size      VMA       LMA       File off  Algn
  0 .init         00000038  00001000  00001000  00001000  2**1
                  CONTENTS, ALLOC, LOAD, READONLY, CODE
  1 .firmware_version 0000000e  000010c0  000010c0  000010c0  2**2
                  CONTENTS, ALLOC, LOAD, DATA
  2 .vector       000000fe  000010ce  000010ce  000010ce  2**1
                  CONTENTS, ALLOC, LOAD, READONLY, CODE
  3 .text         0000542c  000011cc  000011cc  000011cc  2**2
                  CONTENTS, ALLOC, LOAD, READONLY, CODE
  4 .fini         00000000  000065f8  000065f8  000073e8  2**0
                  CONTENTS, ALLOC, LOAD, CODE
  5 .dalign       00000000  20000000  20000000  000073e8  2**0
                  CONTENTS
  6 .dlalign      00000000  000065f8  000065f8  000073e8  2**0
                  CONTENTS
  7 .data         000003e8  20000000  000065f8  00007000  2**2
                  CONTENTS, ALLOC, LOAD, DATA
  8 .bss          00000364  200003e8  000069e0  000073e8  2**2
                  ALLOC
  9 .stack        00000900  20004700  20004700  00007700  2**0
                  ALLOC
 10 .debug_info   0000d0ea  00000000  00000000  000073e8  2**0
                  CONTENTS, READONLY, DEBUGGING, OCTETS
 11 .debug_abbrev 00002e11  00000000  00000000  000144d2  2**0
                  CONTENTS, READONLY, DEBUGGING, OCTETS
 12 .debug_loclists 00004bd2  00000000  00000000  000172e3  2**0
                  CONTENTS, READONLY, DEBUGGING, OCTETS
 13 .debug_aranges 00000d80  00000000  00000000  0001beb8  2**3
                  CONTENTS, READONLY, DEBUGGING, OCTETS
 14 .debug_rnglists 00000fd1  00000000  00000000  0001cc38  2**0
                  CONTENTS, READONLY, DEBUGGING, OCTETS
 15 .debug_line   000136e9  00000000  00000000  0001dc09  2**0
                  CONTENTS, READONLY, DEBUGGING, OCTETS
 16 .debug_str    00003f6c  00000000  00000000  000312f2  2**0
                  CONTENTS, READONLY, DEBUGGING, OCTETS
 17 .debug_line_str 0000088e  00000000  00000000  0003525e  2**0
                  CONTENTS, READONLY, DEBUGGING, OCTETS
 18 .comment      00000031  00000000  00000000  00035aec  2**0
                  CONTENTS, READONLY
 19 .riscv.attributes 00000035  00000000  00000000  00035b1d  2**0
                  CONTENTS, READONLY
 20 .debug_frame  00001d64  00000000  00000000  00035b54  2**2
                  CONTENTS, READONLY, DEBUGGING, OCTETS
SYMBOL TABLE:
00001000 l    d  .init	00000000 .init
000010c0 l    d  .firmware_version	00000000 .firmware_version
000010ce l    d  .vector	00000000 .vector
000011cc l    d  .text	00000000 .text
000065f8 l    d  .fini	00000000 .fini
20000000 l    d  .dalign	00000000 .dalign
000065f8 l    d  .dlalign	00000000 .dlalign
20000000 l    d  .data	00000000 .data
200003e8 l    d  .bss	00000000 .bss
20004700 l    d  .stack	00000000 .stack
00000000 l    d  .debug_info	00000000 .debug_info
00000000 l    d  .debug_abbrev	00000000 .debug_abbrev
00000000 l    d  .debug_loclists	00000000 .debug_loclists
00000000 l    d  .debug_aranges	00000000 .debug_aranges
00000000 l    d  .debug_rnglists	00000000 .debug_rnglists
00000000 l    d  .debug_line	00000000 .debug_line
00000000 l    d  .debug_str	00000000 .debug_str
00000000 l    d  .debug_line_str	00000000 .debug_line_str
00000000 l    d  .comment	00000000 .comment
00000000 l    d  .riscv.attributes	00000000 .riscv.attributes
00000000 l    d  .debug_frame	00000000 .debug_frame
00000000 l    df *ABS*	00000000 startup_ch32v20x_D6.o
000010d0 l       .vector	00000000 _vector_base
00000000 l    df *ABS*	00000000 main.c
00000000 l    df *ABS*	00000000 save-restore.o
00000000 l    df *ABS*	00000000 lib_a-memset.o
00000000 l    df *ABS*	00000000 dshot.c
00000000 l    df *ABS*	00000000 functions.c
00000000 l    df *ABS*	00000000 phaseouts.c
00000000 l    df *ABS*	00000000 signal.c
00000000 l    df *ABS*	00000000 sounds.c
00000000 l    df *ABS*	00000000 ADC.c
00000000 l    df *ABS*	00000000 IO.c
00000000 l    df *ABS*	00000000 ch32v20x_it.c
00000000 l    df *ABS*	00000000 comparator.c
00000000 l    df *ABS*	00000000 eeprom.c
00000000 l    df *ABS*	00000000 peripherals.c
00000000 l    df *ABS*	00000000 system_ch32v20x.c
00000000 l    df *ABS*	00000000 ch32v20x_adc.c
00000000 l    df *ABS*	00000000 ch32v20x_dma.c
00000000 l    df *ABS*	00000000 ch32v20x_exti.c
00000000 l    df *ABS*	00000000 ch32v20x_flash.c
00000000 l    df *ABS*	00000000 ch32v20x_gpio.c
00000000 l    df *ABS*	00000000 ch32v20x_iwdg.c
00000000 l    df *ABS*	00000000 ch32v20x_rcc.c
00000000 l    df *ABS*	00000000 ch32v20x_tim.c
00005030 l     F .text	0000006a TI1_Config
0000509a l     F .text	00000084 TI2_Config
00000000 l    df *ABS*	00000000 ch32v20x_usart.c
00000000 l    df *ABS*	00000000 addsf3.o
00000000 l    df *ABS*	00000000 divsf3.o
00000000 l    df *ABS*	00000000 gesf2.o
00000000 l    df *ABS*	00000000 lesf2.o
00000000 l    df *ABS*	00000000 mulsf3.o
00000000 l    df *ABS*	00000000 fixsfsi.o
00000000 l    df *ABS*	00000000 fixunssfsi.o
00000000 l    df *ABS*	00000000 floatsisf.o
00000000 l    df *ABS*	00000000 floatunsisf.o
00000000 l    df *ABS*	00000000 _clzsi2.o
2000037e g     O .data	00000002 startup_max_duty_cycle
000041dc g     F .text	00000014 EXTI2_IRQHandler
0000464e g     F .text	00000032 COM_TIM3_Init
000046ca g     F .text	000000a4 UN_TIM2_Init
200004b0 g     O .bss	00000001 out_put
20000474 g     O .bss	00000004 stall_protection_adjust
20000433 g     O .bss	00000001 bemf_timeout_happened
20000499 g     O .bss	00000001 enter_calibration_count
20000370 g     O .data	00000002 high_rpm_level
00006428 g     O .text	00000010 gcr_encode_table
2000046f g     O .bss	00000001 desync_happened
00003a72 g     F .text	00000076 playInputTune2
2000035e g     O .data	00000002 armed_count_threshold
000033a0 g     F .text	00000052 phaseCPWM
20000382 g     O .data	00000001 reversing_dead_band
00004bfc g     F .text	00000014 DMA_Cmd
20000428 g     O .bss	00000001 stuckcounter
00003e1e g     F .text	0000005e changeToInput
2000037c g     O .data	00000002 minimum_duty_cycle
00001600 g     F .text	00000022 map
20000390 g     O .data	00000002 ADC_CCR
200003b8 g     O .data	00000004 MAXIMUM_RPM_SPEED_CONTROL
2000048b g     O .bss	00000001 brake_on_stop
00003ffa g     F .text	00000092 detectInput
00005492 g     F .text	00000020 TIM_CCxCmd
20000b58 g       .data	00000000 __global_pointer$
00005530 g     F .text	0000001a TIM_SetIC4Prescaler
000011d4 g     F .text	00000028 .hidden __riscv_save_8
20000438 g     O .bss	00000001 dshot_telemetry
00004c3a g     F .text	00000004 DMA_GetITStatus
0000490a  w      .text	00000000 TIM1_CC_IRQHandler
200003a8 g     O .data	00000001 motor_poles
00004090 g     F .text	00000026 HardFault_Handler
00003d84 g     F .text	0000009a ADCInit
00003886 g     F .text	00000012 setVolume
2000038e g     O .data	00000002 use_current_limit_adjust
20000415 g     O .bss	00000001 dshot
00004a5e g     F .text	00000012 ADC_DMACmd
00001220 g     F .text	0000000c .hidden __riscv_restore_3
00005a44 g     F .text	000002e6 .hidden __divsf3
00005402 g     F .text	0000000e TIM_OC1PreloadConfig
000041cc g     F .text	00000010 SysTick_Handler
20000450 g     O .bss	00000004 average_interval
00004a82 g     F .text	0000000a ADC_StartCalibration
20000470 g     O .bss	00000002 armed_timeout_count
000048d6  w      .text	00000000 PVD_IRQHandler
0000120c g     F .text	00000020 .hidden __riscv_restore_10
0000408c g     F .text	00000004 NMI_Handler
00006130 g     F .text	00000060 .hidden __fixsfsi
000048e6  w      .text	00000000 EXTI3_IRQHandler
20000444 g     O .bss	00000002 converted_degrees
000011d4 g     F .text	00000028 .hidden __riscv_save_11
00003f50 g     F .text	00000076 checkDshot
000053e4 g     F .text	00000004 TIM_DMACmd
20000437 g     O .bss	00000001 last_dshot_command
20000468 g     O .bss	00000002 battery_voltage
00003b62 g     F .text	00000056 playDefaultTone
0000551a g     F .text	00000016 TIM_SetIC3Prescaler
00001b90 g     F .text	00000144 commutate
00004ce8 g     F .text	00000064 FLASH_ProgramPage_Fast
200003ea g     O .bss	00000001 dshot_extended_telemetry
00001622 g     F .text	0000000e getAbsDif
000034f0 g     F .text	0000003c phaseALOW
200003a3 g     O .data	00000001 drag_brake_strength
200003e8 g       .bss	00000000 _sbss
0000435a g     F .text	00000018 read_flash_bin
00000800 g       *ABS*	00000000 __stack_size
20000432 g     O .bss	00000001 running
00004bc4 g     F .text	00000038 DMA_Init
00001220 g     F .text	0000000c .hidden __riscv_restore_2
00000100 g       *ABS*	00000000 __resv_size
20000496 g     O .bss	00000001 high_calibration_set
2000039c g     O .data	00000002 enter_sine_angle
2000048a g     O .bss	00000001 stall_protection
20000422 g     O .bss	00000002 adjusted_duty_cycle
200002f8 g     O .data	00000028 currentPid
000053b8 g     F .text	00000016 TIM_CtrlPWMOutputs
000045f0 g     F .text	00000020 ZC_TIM4_Init
00004a4e g     F .text	00000010 ADC_Cmd
20000362 g     O .data	00000002 gate_drive_offset
2000036b g     O .data	00000001 changeover_step
00004e3a g     F .text	00000106 GPIO_PinRemapConfig
000048e0  w      .text	00000000 EXTI0_IRQHandler
00004916  w      .text	00000000 I2C2_EV_IRQHandler
00001e74 g     F .text	000006e6 tenKhzRoutine
200003a4 g     O .data	00000001 sine_mode_power
00004610 g     F .text	0000003e TENKHz_SysTick_Init
000053a0 g     F .text	00000018 TIM_Cmd
0000163e g     F .text	00000012 delayMillis
2000038c g     O .data	00000002 reverse_speed_threshold
20000378 g     O .data	00000002 tim1_arr
00005434 g     F .text	00000016 TIM_OC4PreloadConfig
200003cc g     O .data	00000004 SystemCoreClock
20000394 g     O .data	00000001 servo_dead_band
20000404 g     O .bss	00000001 EDT_ARMED
2000042e g     O .bss	00000002 phase_A_position
00001038 g       .init	00000000 _einit
000056be g     F .text	0000000c TIM_ClearITPendingBit
2000043e g     O .bss	00000002 ADC_raw_volts
00005dc0 g     F .text	00000098 .hidden __lesf2
00004fb8 g     F .text	0000001e RCC_APB2PeriphClockCmd
000011cc g     F .text	00000030 .hidden __riscv_save_12
000048f8  w      .text	00000000 ADC1_2_IRQHandler
20000418 g     O .bss	00000002 newinput
2000041a g     O .bss	00000002 input
200003b0 g     O .data	00000001 VARIABLE_PWM
00004d4c g     F .text	000000ee GPIO_Init
00004f88 g     F .text	00000012 RCC_ADCCLKConfig
000048ce  w      .text	00000000 Break_Point_Handler
2000047c g     O .bss	00000004 input_override
20000480 g     O .bss	00000001 use_speed_control_loop
200003c0 g     O .data	00000001 buffer_divider
20000488 g     O .bss	00000001 TLM_ON_INTERVAL
0000120c g     F .text	00000020 .hidden __riscv_restore_11
0000491a  w      .text	00000000 SPI1_IRQHandler
00004a70 g     F .text	0000000a ADC_ResetCalibration
000042b4 g     F .text	000000a6 save_flash_nolib
2000048c g     O .bss	00000001 bi_direction
000048d8  w      .text	00000000 TAMPER_IRQHandler
000011fc g     F .text	0000000c .hidden __riscv_save_1
00001ae4 g     F .text	0000006c saveEEpromSettings
00001220 g     F .text	0000000c .hidden __riscv_restore_0
00005286 g     F .text	00000092 TIM_OC3Init
20000448 g     O .bss	00000004 e_com_time
000011e2 g     F .text	0000001a .hidden __riscv_save_7
0000422e g     F .text	00000012 enableCompInterrupts
000010c0 g     O .firmware_version	0000000e firmware_info
20000400 g     O .bss	00000004 shift_amount
00004fd6 g     F .text	0000001e RCC_APB1PeriphClockCmd
000048ca  w      .text	00000000 Ecall_M_Mode_Handler
20004700 g       .stack	00000000 _heap_end
2000036a g     O .data	00000001 filter_level
00003c9e g     F .text	00000080 enableADC_DMA
00001216 g     F .text	00000016 .hidden __riscv_restore_5
00003e7c g     F .text	0000004a receiveDshotDma
00004f9a g     F .text	0000001e RCC_AHBPeriphClockCmd
00004140 g     F .text	0000008c DMA1_Channel4_IRQHandler
00004aac g     F .text	000000b8 ADC_RegularChannelConfig
00003540 g     F .text	00000066 comStep
0000546e g     F .text	0000000e TIM_OC3FastConfig
20000406 g     O .bss	00000002 signaltimeout
000016d0 g     F .text	0000005c doPidCalculations
200003ad g     O .data	00000001 TEMPERATURE_LIMIT
200003f0 g     O .bss	00000002 dshot_frametime
200004b4 g     O .bss	00000004 smallestnumber
20000484 g     O .bss	00000001 RC_CAR_REVERSE
00003d1e g     F .text	00000066 activateADC
2000041f g     O .bss	00000001 dshotcommand
2000046a g     O .bss	00000002 telem_ms_count
00004cac g     F .text	0000000e FLASH_Lock
00004f6c g     F .text	0000000e IWDG_ReloadCounter
2000036e g     O .data	00000002 throttle_max_at_low_rpm
2000049c g     O .bss	00000004 servorawinput
00004c24 g     F .text	0000000e DMA_GetFlagStatus
2000048e g     O .bss	00000001 drive_by_rpm
00001216 g     F .text	00000016 .hidden __riscv_restore_6
00004922  w      .text	00000000 USART3_IRQHandler
00004ca0 g     F .text	0000000c EXTI_ClearITPendingBit
000048da  w      .text	00000000 RTC_IRQHandler
00004a8c g     F .text	00000008 ADC_GetCalibrationStatus
2000074c g       .bss	00000000 _ebss
200003bc g     O .data	00000004 max_servo_deviation
000048f6  w      .text	00000000 DMA1_Channel7_IRQHandler
00005188 g     F .text	0000006a TIM_OC1Init
20000446 g     O .bss	00000001 degrees_celsius
20000374 g     O .data	00000002 duty_cycle_maximum
00004a94 g     F .text	00000018 ADC_SoftwareStartConvCmd
00005426 g     F .text	0000000e TIM_OC3PreloadConfig
00004a7a g     F .text	00000008 ADC_GetResetCalibrationStatus
0000336a g     F .text	00000036 phaseBLOW
000048fe  w      .text	00000000 CAN1_RX1_IRQHandler
2000040f g     O .bss	00000001 zcfound
20000494 g     O .bss	00000002 last_high_threshold
00004372 g     F .text	00000002 initAfterJump
00005d2a g     F .text	00000096 .hidden __gtsf2
2000038a g     O .data	00000001 maximum_throttle_change_ramp
2000045a g     O .bss	00000002 actual_current
00004910  w      .text	00000000 TIM4_IRQHandler
2000035c g     O .data	00000001 min_bemf_counts_up
20000482 g     O .bss	00000002 target_e_com_time
00003bb8 g     F .text	00000058 playChangedTone
20000366 g     O .data	00000002 step_delay
000053e8 g     F .text	0000001a TIM_ARRPreloadConfig
000011d4 g     F .text	00000028 .hidden __riscv_save_9
000039d4 g     F .text	0000009e playStartupTune
200002d0 g     O .data	00000028 stallPid
200003a1 g     O .data	00000001 dead_time_override
000032ea g     F .text	0000004a phaseBPWM
20000398 g     O .data	00000002 servo_high_threshold
000011e2 g     F .text	0000001a .hidden __riscv_save_4
2000037a g     O .data	00000002 stall_protect_minimum_duty
000035ce g     F .text	000001a0 computeServoInput
00004912  w      .text	00000000 I2C1_EV_IRQHandler
20000320 g     O .data	00000028 speedPid
00004680 g     F .text	00000042 ALL_DMA_Init
000056a6 g     F .text	00000018 TIM_GetITStatus
0000492a  w      .text	00000000 USBHD_IRQHandler
20000458 g     O .bss	00000002 low_pin_count
20000358 g     O .data	00000002 commutation_interval
0000376e g     F .text	00000118 transfercomplete
2000041c g     O .bss	00000002 zero_input_count
00003898 g     F .text	00000016 setCaptureCompare
000035a6 g     F .text	00000014 fullBrake
2000039e g     O .data	00000002 stall_protect_target_interval
000048f4  w      .text	00000000 DMA1_Channel6_IRQHandler
0000636a g     F .text	00000068 .hidden __clzsi2
0000492e  w      .text	00000000 UART4_IRQHandler
200003f8 g     O .bss	00000004 dshot_full_number
20000492 g     O .bss	00000001 low_calibration_counts
200003a6 g     O .data	00000002 CURRENT_LIMIT
000041f0 g     F .text	0000002a TIM3_IRQHandler
000048de  w      .text	00000000 RCC_IRQHandler
00003ae8 g     F .text	0000007a playInputTune
000011fc g     F .text	0000000c .hidden __riscv_save_3
00004908  w      .text	00000000 TIM1_TRG_COM_IRQHandler
2000035b g     O .data	00000001 min_bemf_counts_down
000040b6 g     F .text	00000024 DMA1_Channel1_IRQHandler
0000544a g     F .text	0000000e TIM_OC1FastConfig
00001000 g       .init	00000000 _start
20000348 g     O .data	00000010 AHBPrescTable
200003f3 g     O .bss	00000001 last_command
20000380 g     O .data	00000001 fast_accel
00005410 g     F .text	00000016 TIM_OC2PreloadConfig
000061e2 g     F .text	000000cc .hidden __floatsisf
00004924  w      .text	00000000 EXTI15_10_IRQHandler
000053ce g     F .text	00000012 TIM_ITConfig
000051f2 g     F .text	00000094 TIM_OC2Init
00004f7a g     F .text	0000000e IWDG_Enable
20000408 g     O .bss	00000002 waitTime
0000123c g     F .text	000002b2 computeDshotDMA
00004c3e g     F .text	00000062 EXTI_Init
2000040e g     O .bss	00000001 bemfcounter
00004930  w      .text	00000000 DMA1_Channel8_IRQHandler
000038f8 g     F .text	000000dc playBlueJayTune
20000442 g     O .bss	00000001 temperature_offset
200004a0 g     O .bss	00000001 beep_volume
000034b4 g     F .text	0000003c phaseAFLOAT
200004aa g     O .bss	00000001 buffer_padding
20000550 g     O .bss	00000040 dpulse
2000036c g     O .data	00000002 throttle_max_at_high_rpm
00004b84 g     F .text	00000028 TempSensor_Volt_To_Temper
00003f08 g     F .text	00000048 sendDshotDma
000054d2 g     F .text	00000018 TIM_SelectOutputTrigger
20000364 g     O .data	00000001 forward
0000421a g     F .text	00000014 maskPhaseInterrupts
00004cba g     F .text	0000002e FLASH_ErasePage_Fast
20000000 g       .dalign	00000000 _data_vma
2000046c g     O .bss	00000002 low_voltage_count
2000045c g     O .bss	00000004 smoothed_raw_current
0000267a g     F .text	000000a4 zcfoundroutine
00005318 g     F .text	00000068 TIM_OC4Init
20000467 g     O .bss	00000001 cell_count
200004b9 g     O .bss	00000001 MCU_Version
20000376 g     O .data	00000002 TIMER1_MAX_ARR
200004a4 g     O .bss	00000006 ADCDataDMA
00003268 g     F .text	00000082 proportionalBrake
00004902  w      .text	00000000 EXTI9_5_IRQHandler
00004f40 g     F .text	0000002c GPIO_EXTILineConfig
000011d4 g     F .text	00000028 .hidden __riscv_save_10
2000064c g     O .bss	00000100 dma_buffer
0000255a g     F .text	00000120 advanceincrement
000054ea g     F .text	00000016 TIM_SetIC1Prescaler
20000416 g     O .bss	00000001 inputSet
00001216 g     F .text	00000016 .hidden __riscv_restore_4
20000464 g     O .bss	00000002 tenkhzcounter
0000120c g     F .text	00000020 .hidden __riscv_restore_8
000011e2 g     F .text	0000001a .hidden __riscv_save_6
00003c86 g     F .text	00000018 ADC_DMA_Callback
20000383 g     O .data	00000001 bemf_timeout
0000491c  w      .text	00000000 SPI2_IRQHandler
20000456 g     O .bss	00000002 last_duty_cycle
0000122c g     F .text	00000010 memset
0000120c g     F .text	00000020 .hidden __riscv_restore_9
00001216 g     F .text	00000016 .hidden __riscv_restore_7
0000271e g     F .text	00000b4a main
0000442e g     F .text	00000028 MX_IWDG_Init
00005dc0 g     F .text	00000098 .hidden __ltsf2
20000487 g     O .bss	00000001 USE_HALL_SENSOR
200004ac g     O .bss	00000004 average_signal_pulse
20000490 g     O .bss	00000002 last_input
20000388 g     O .data	00000001 VOLTAGE_DIVIDER
20000426 g     O .bss	00000002 k_erpm
20000478 g     O .bss	00000001 use_current_limit
00005458 g     F .text	00000016 TIM_OC2FastConfig
20000498 g     O .bss	00000001 calibration_required
200003a2 g     O .data	00000001 driving_brake_strength
000040da g     F .text	00000066 DMA1_Channel5_IRQHandler
00003334 g     F .text	00000036 phaseBFLOAT
00001cd4 g     F .text	00000078 PeriodElapsedCallback
000048e8  w      .text	00000000 EXTI4_IRQHandler
200003fc g     O .bss	00000004 gcrnumber
000048fc  w      .text	00000000 USB_LP_CAN1_RX0_IRQHandler
00004374 g     F .text	000000ba ALL_COMP_Init
00005e58 g     F .text	000002d8 .hidden __mulsf3
00004bac g     F .text	00000018 ADC_BufferCmd
200003ae g     O .data	00000001 telemetry_interval_ms
20000384 g     O .data	00000002 sin_mode_min_s_d
00004796 g     F .text	000000b0 SystemInit
20000424 g     O .bss	00000002 e_rpm
20000440 g     O .bss	00000002 ADC_raw_temp
0000554a g     F .text	0000015c TIM_ICInit
200003aa g     O .data	00000002 motor_kv
20000420 g     O .bss	00000001 bad_count
20000372 g     O .data	00000002 low_rpm_level
000048fa  w      .text	00000000 USB_HP_CAN1_TX_IRQHandler
000064f8 g     O .text	00000100 .hidden __clz_tab
00001000 g       .init	00000000 _sinit
000046c2 g     F .text	00000008 ALL_GPIO_Init
0000492c  w      .text	00000000 USBHDWakeUp_IRQHandler
00005d2a g     F .text	00000096 .hidden __gesf2
0000345e g     F .text	00000056 phaseAPWM
200003b2 g     O .data	00000001 eeprom_layout_version
000048ee  w      .text	00000000 DMA1_Channel3_IRQHandler
200003c4 g     O .data	00000004 buffersize
200003c8 g     O .data	00000001 ic_timer_prescaler
00004906  w      .text	00000000 TIM1_UP_IRQHandler
00001630 g     F .text	0000000e delayMicros
20000485 g     O .bss	00000001 LOW_VOLTAGE_CUTOFF
20000369 g     O .data	00000001 advancedivisor
200003b1 g     O .data	00000001 comp_pwm
000048d4  w      .text	00000000 WWDG_IRQHandler
000033f2 g     F .text	00000036 phaseCFLOAT
00005012 g     F .text	0000001e RCC_APB1PeriphResetCmd
000048cc  w      .text	00000000 Ecall_U_Mode_Handler
200003ec g     O .bss	00000002 dshot_badcounts
00004c10 g     F .text	00000014 DMA_ITConfig
20000640 g     O .bss	0000000c commutation_intervals
2000040c g     O .bss	00000002 thiszctime
2000035a g     O .data	00000001 step
0000490c  w      .text	00000000 TIM2_IRQHandler
200003af g     O .data	00000001 stuck_rotor_protection
20004f00 g       .stack	00000000 _eusrstack
000011fc g     F .text	0000000c .hidden __riscv_save_2
000048d2  w      .text	00000000 SW_Handler
2000044c g     O .bss	00000004 last_average_interval
20000381 g     O .data	00000001 max_duty_cycle_change
20000405 g     O .bss	00000001 EDT_ARM_ENABLE
000035ba g     F .text	00000014 allpwm
200003ee g     O .bss	00000002 dshot_goodcounts
20000000 g     O .data	000002d0 pwmSin
000049b8 g     F .text	00000040 ADC_DeInit
20000429 g     O .bss	00000001 stepper_sine
2000039a g     O .data	00000002 servo_low_threshold
00004904  w      .text	00000000 TIM1_BRK_IRQHandler
000049f8 g     F .text	00000056 ADC_Init
000054b2 g     F .text	00000020 TIM_CCxNCmd
000048e2  w      .text	00000000 EXTI1_IRQHandler
2000046e g     O .bss	00000001 crawler_mode
000011e2 g     F .text	0000001a .hidden __riscv_save_5
00004b64 g     F .text	00000020 ADC_TempSensorVrefintCmd
200003e8 g       .data	00000000 _edata
20000439 g     O .bss	00000001 prop_brake_active
2000074c g       .bss	00000000 _end
2000043c g     O .bss	00000002 ADC_raw_current
20000436 g     O .bss	00000001 old_routine
0000511e g     F .text	0000006a TIM_TimeBaseInit
00004926  w      .text	00000000 RTCAlarm_IRQHandler
20000454 g     O .bss	00000001 desync_check
20000434 g     O .bss	00000002 adjusted_input
000065f8 g       .dlalign	00000000 _data_lma
00001e3e g     F .text	00000036 startMotor
20000389 g     O .data	00000001 low_rpm_throttle_limit
200003ac g     O .data	00000001 advance_level
2000048d g     O .bss	00000001 dir_reversed
2000042a g     O .bss	00000002 phase_C_position
00004920  w      .text	00000000 USART2_IRQHandler
20000489 g     O .bss	00000001 use_sin_start
20000497 g     O .bss	00000001 high_calibration_counts
00004240 g     F .text	00000074 changeCompInput
00004846 g     F .text	00000080 SystemCoreClockUpdate
000062ae g     F .text	000000bc .hidden __floatunsisf
00003c10 g     F .text	00000076 playBeaconTune3
00004918  w      .text	00000000 I2C2_ER_IRQHandler
000048ec  w      .text	00000000 DMA1_Channel2_IRQHandler
00004456 g     F .text	0000019a PWM_TIM1_Init
000053e0 g     F .text	00000004 TIM_GenerateEvent
200004b8 g     O .bss	00000001 output_timer_prescaler
00001208 g     F .text	00000024 .hidden __riscv_restore_12
20000396 g     O .data	00000002 servo_neutral
00004c32 g     F .text	00000008 DMA_ClearFlag
200003b4 g     O .data	00000004 MINIMUM_RPM_SPEED_CONTROL
200003f4 g     O .bss	00000001 command_count
00005380 g     F .text	00000020 TIM_BDTRConfig
00004932  w      .text	00000000 handle_reset
00004900  w      .text	00000000 CAN1_SCE_IRQHandler
20000466 g     O .bss	00000001 brushed_direction_set
00006190 g     F .text	00000052 .hidden __fixunssfsi
2000040a g     O .bss	00000002 duty_cycle
000048dc  w      .text	00000000 FLASH_IRQHandler
000011fc g     F .text	0000000c .hidden __riscv_save_0
0000491e  w      .text	00000000 USART1_IRQHandler
20000386 g     O .data	00000002 min_startup_duty
200004bc g     O .bss	00000094 gcr
00005500 g     F .text	0000001a TIM_SetIC2Prescaler
000038ae g     F .text	0000004a playBJNote
200003e8 g     O .bss	00000002 send_extended_dshot
00004ff4 g     F .text	0000001e RCC_APB2PeriphResetCmd
00004914  w      .text	00000000 I2C1_ER_IRQHandler
20000460 g     O .bss	00000004 consumed_current
20000455 g     O .bss	00000001 play_tone_flag
20000360 g     O .data	00000001 bad_count_threshold
00003fc6 g     F .text	00000034 checkServo
00003ec6 g     F .text	00000042 changeToOutput
00001220 g     F .text	0000000c .hidden __riscv_restore_1
20000486 g     O .bss	00000001 do_once_sinemode
00001d4c g     F .text	000000f2 interruptRoutine
20000430 g     O .bss	00000002 advance
2000042c g     O .bss	00000002 phase_B_position
2000041e g     O .bss	00000001 armed
200003f2 g     O .bss	00000001 high_pin_count
00001650 g     F .text	00000080 checkForHighSignal
000056ca g     F .text	00000012 USART_DMACmd
0000352c g     F .text	00000014 allOff
0000547c g     F .text	00000016 TIM_OC4FastConfig
20000392 g     O .data	00000002 low_cell_volt_cutoff
00001b50 g     F .text	00000040 getBemfState
000056dc g     F .text	00000368 .hidden __addsf3
200003a0 g     O .data	00000001 sine_mode_changeover_thottle_level
00004928  w      .text	00000000 USBWakeUp_IRQHandler
20000590 g     O .bss	000000b0 eepromBuffer
00003428 g     F .text	00000036 phaseCLOW
20000368 g     O .data	00000001 rising
20000410 g     O .bss	00000004 zero_crosses
000014ee g     F .text	00000112 make_dshot_package
20000414 g     O .bss	00000001 servoPwm
2000043a g     O .bss	00000001 send_telemetry
2000043b g     O .bss	00000001 adc_counter
0000476e g     F .text	00000028 initCorePeripherals
0000172c g     F .text	000003b8 loadEEpromSettings



Disassembly of section .init:

00001000 <_sinit>:
    1000:	1330306f          	j	4932 <handle_reset>
    1004:	00000013          	.word	0x00000013
    1008:	00000013          	.word	0x00000013
    100c:	00000013          	.word	0x00000013
    1010:	00000013          	.word	0x00000013
    1014:	00000013          	.word	0x00000013
    1018:	00000013          	.word	0x00000013
    101c:	00000013          	.word	0x00000013
    1020:	00000013          	.word	0x00000013
    1024:	00000013          	.word	0x00000013
    1028:	00000013          	.word	0x00000013
    102c:	00000013          	.word	0x00000013
    1030:	00000013          	.word	0x00000013
    1034:	00100073          	.word	0x00100073

Disassembly of section .vector:

000010ce <_vector_base-0x2>:
	...

000010d0 <_vector_base>:
    10d0:	00001000          	.word	0x00001000
    10d4:	00000000          	.word	0x00000000
    10d8:	0000408c          	.word	0x0000408c
    10dc:	00004090          	.word	0x00004090
    10e0:	00000000          	.word	0x00000000
    10e4:	000048ca          	.word	0x000048ca
	...
    10f0:	000048cc          	.word	0x000048cc
    10f4:	000048ce          	.word	0x000048ce
	...
    1100:	000041cc          	.word	0x000041cc
    1104:	00000000          	.word	0x00000000
    1108:	000048d2          	.word	0x000048d2
    110c:	00000000          	.word	0x00000000
    1110:	000048d4          	.word	0x000048d4
    1114:	000048d6          	.word	0x000048d6
    1118:	000048d8          	.word	0x000048d8
    111c:	000048da          	.word	0x000048da
    1120:	000048dc          	.word	0x000048dc
    1124:	000048de          	.word	0x000048de
    1128:	000048e0          	.word	0x000048e0
    112c:	000048e2          	.word	0x000048e2
    1130:	000041dc          	.word	0x000041dc
    1134:	000048e6          	.word	0x000048e6
    1138:	000048e8          	.word	0x000048e8
    113c:	000040b6          	.word	0x000040b6
    1140:	000048ec          	.word	0x000048ec
    1144:	000048ee          	.word	0x000048ee
    1148:	00004140          	.word	0x00004140
    114c:	000040da          	.word	0x000040da
    1150:	000048f4          	.word	0x000048f4
    1154:	000048f6          	.word	0x000048f6
    1158:	000048f8          	.word	0x000048f8
    115c:	000048fa          	.word	0x000048fa
    1160:	000048fc          	.word	0x000048fc
    1164:	000048fe          	.word	0x000048fe
    1168:	00004900          	.word	0x00004900
    116c:	00004902          	.word	0x00004902
    1170:	00004904          	.word	0x00004904
    1174:	00004906          	.word	0x00004906
    1178:	00004908          	.word	0x00004908
    117c:	0000490a          	.word	0x0000490a
    1180:	0000490c          	.word	0x0000490c
    1184:	000041f0          	.word	0x000041f0
    1188:	00004910          	.word	0x00004910
    118c:	00004912          	.word	0x00004912
    1190:	00004914          	.word	0x00004914
    1194:	00004916          	.word	0x00004916
    1198:	00004918          	.word	0x00004918
    119c:	0000491a          	.word	0x0000491a
    11a0:	0000491c          	.word	0x0000491c
    11a4:	0000491e          	.word	0x0000491e
    11a8:	00004920          	.word	0x00004920
    11ac:	00004922          	.word	0x00004922
    11b0:	00004924          	.word	0x00004924
    11b4:	00004926          	.word	0x00004926
    11b8:	00004928          	.word	0x00004928
    11bc:	0000492a          	.word	0x0000492a
    11c0:	0000492c          	.word	0x0000492c
    11c4:	0000492e          	.word	0x0000492e
    11c8:	00004930          	.word	0x00004930

Disassembly of section .text:

000011cc <__riscv_save_12>:
    11cc:	7139                	addi	sp,sp,-64
    11ce:	4301                	li	t1,0
    11d0:	c66e                	sw	s11,12(sp)
    11d2:	a019                	j	11d8 <__riscv_save_10+0x4>

000011d4 <__riscv_save_10>:
    11d4:	7139                	addi	sp,sp,-64
    11d6:	5341                	li	t1,-16
    11d8:	c86a                	sw	s10,16(sp)
    11da:	ca66                	sw	s9,20(sp)
    11dc:	cc62                	sw	s8,24(sp)
    11de:	ce5e                	sw	s7,28(sp)
    11e0:	a019                	j	11e6 <__riscv_save_4+0x4>

000011e2 <__riscv_save_4>:
    11e2:	7139                	addi	sp,sp,-64
    11e4:	5301                	li	t1,-32
    11e6:	d05a                	sw	s6,32(sp)
    11e8:	d256                	sw	s5,36(sp)
    11ea:	d452                	sw	s4,40(sp)
    11ec:	d64e                	sw	s3,44(sp)
    11ee:	d84a                	sw	s2,48(sp)
    11f0:	da26                	sw	s1,52(sp)
    11f2:	dc22                	sw	s0,56(sp)
    11f4:	de06                	sw	ra,60(sp)
    11f6:	40610133          	sub	sp,sp,t1
    11fa:	8282                	jr	t0

000011fc <__riscv_save_0>:
    11fc:	1141                	addi	sp,sp,-16
    11fe:	c04a                	sw	s2,0(sp)
    1200:	c226                	sw	s1,4(sp)
    1202:	c422                	sw	s0,8(sp)
    1204:	c606                	sw	ra,12(sp)
    1206:	8282                	jr	t0

00001208 <__riscv_restore_12>:
    1208:	4db2                	lw	s11,12(sp)
    120a:	0141                	addi	sp,sp,16

0000120c <__riscv_restore_10>:
    120c:	4d02                	lw	s10,0(sp)
    120e:	4c92                	lw	s9,4(sp)
    1210:	4c22                	lw	s8,8(sp)
    1212:	4bb2                	lw	s7,12(sp)
    1214:	0141                	addi	sp,sp,16

00001216 <__riscv_restore_4>:
    1216:	4b02                	lw	s6,0(sp)
    1218:	4a92                	lw	s5,4(sp)
    121a:	4a22                	lw	s4,8(sp)
    121c:	49b2                	lw	s3,12(sp)
    121e:	0141                	addi	sp,sp,16

00001220 <__riscv_restore_0>:
    1220:	4902                	lw	s2,0(sp)
    1222:	4492                	lw	s1,4(sp)
    1224:	4422                	lw	s0,8(sp)
    1226:	40b2                	lw	ra,12(sp)
    1228:	0141                	addi	sp,sp,16
    122a:	8082                	ret

0000122c <memset>:
    122c:	832a                	mv	t1,a0
    122e:	c611                	beqz	a2,123a <memset+0xe>
    1230:	00b30023          	sb	a1,0(t1)
    1234:	167d                	addi	a2,a2,-1
    1236:	0305                	addi	t1,t1,1
    1238:	fe65                	bnez	a2,1230 <memset+0x4>
    123a:	8082                	ret

0000123c <computeDshotDMA>:
    123c:	af418693          	addi	a3,gp,-1292 # 2000064c <dma_buffer>
    1240:	5ef8                	lw	a4,124(a3)
    1242:	4294                	lw	a3,0(a3)
    1244:	8f15                	sub	a4,a4,a3
    1246:	0742                	slli	a4,a4,0x10
    1248:	8341                	srli	a4,a4,0x10
    124a:	88e19c23          	sh	a4,-1896(gp) # 200003f0 <dshot_frametime>
    124e:	8981d603          	lhu	a2,-1896(gp) # 200003f0 <dshot_frametime>
    1252:	54500713          	li	a4,1349
    1256:	28c76b63          	bltu	a4,a2,14ec <computeDshotDMA+0x2b0>
    125a:	8981d683          	lhu	a3,-1896(gp) # 200003f0 <dshot_frametime>
    125e:	47e00713          	li	a4,1150
    1262:	28d77563          	bgeu	a4,a3,14ec <computeDshotDMA+0x2b0>
    1266:	f97ff2ef          	jal	t0,11fc <__riscv_save_0>
    126a:	af418793          	addi	a5,gp,-1292 # 2000064c <dma_buffer>
    126e:	9f818613          	addi	a2,gp,-1544 # 20000550 <dpulse>
    1272:	08078593          	addi	a1,a5,128
    1276:	9f818713          	addi	a4,gp,-1544 # 20000550 <dpulse>
    127a:	43d4                	lw	a3,4(a5)
    127c:	4388                	lw	a0,0(a5)
    127e:	07a1                	addi	a5,a5,8
    1280:	8e89                	sub	a3,a3,a0
    1282:	8295                	srli	a3,a3,0x5
    1284:	c214                	sw	a3,0(a2)
    1286:	0611                	addi	a2,a2,4
    1288:	fef599e3          	bne	a1,a5,127a <computeDshotDMA+0x3e>
    128c:	431c                	lw	a5,0(a4)
    128e:	4b0c                	lw	a1,16(a4)
    1290:	00472e83          	lw	t4,4(a4)
    1294:	01472e03          	lw	t3,20(a4)
    1298:	02072803          	lw	a6,32(a4)
    129c:	5348                	lw	a0,36(a4)
    129e:	00c72f03          	lw	t5,12(a4)
    12a2:	01c72883          	lw	a7,28(a4)
    12a6:	00b7c6b3          	xor	a3,a5,a1
    12aa:	01cec633          	xor	a2,t4,t3
    12ae:	02c72383          	lw	t2,44(a4)
    12b2:	0106c6b3          	xor	a3,a3,a6
    12b6:	8e29                	xor	a2,a2,a0
    12b8:	00872f83          	lw	t6,8(a4)
    12bc:	01872303          	lw	t1,24(a4)
    12c0:	060a                	slli	a2,a2,0x2
    12c2:	068e                	slli	a3,a3,0x3
    12c4:	02872283          	lw	t0,40(a4)
    12c8:	8ed1                	or	a3,a3,a2
    12ca:	011f4633          	xor	a2,t5,a7
    12ce:	00764633          	xor	a2,a2,t2
    12d2:	8ed1                	or	a3,a3,a2
    12d4:	006fc633          	xor	a2,t6,t1
    12d8:	00564633          	xor	a2,a2,t0
    12dc:	0606                	slli	a2,a2,0x1
    12de:	5b40                	lw	s0,52(a4)
    12e0:	8ed1                	or	a3,a3,a2
    12e2:	5b10                	lw	a2,48(a4)
    12e4:	040a                	slli	s0,s0,0x2
    12e6:	060e                	slli	a2,a2,0x3
    12e8:	8e41                	or	a2,a2,s0
    12ea:	5f40                	lw	s0,60(a4)
    12ec:	5f18                	lw	a4,56(a4)
    12ee:	0ff6f693          	zext.b	a3,a3
    12f2:	8e41                	or	a2,a2,s0
    12f4:	0706                	slli	a4,a4,0x1
    12f6:	8f51                	or	a4,a4,a2
    12f8:	8c618603          	lb	a2,-1850(gp) # 2000041e <armed>
    12fc:	8e018403          	lb	s0,-1824(gp) # 20000438 <dshot_telemetry>
    1300:	0ff77713          	zext.b	a4,a4
    1304:	ee0d                	bnez	a2,133e <computeDshotDMA+0x102>
    1306:	e415                	bnez	s0,1332 <computeDshotDMA+0xf6>
    1308:	40011437          	lui	s0,0x40011
    130c:	80040413          	addi	s0,s0,-2048 # 40010800 <_eusrstack+0x2000b900>
    1310:	4400                	lw	s0,8(s0)
    1312:	8805                	andi	s0,s0,1
    1314:	c415                	beqz	s0,1340 <computeDshotDMA+0x104>
    1316:	89a1c403          	lbu	s0,-1894(gp) # 200003f2 <high_pin_count>
    131a:	0405                	addi	s0,s0,1
    131c:	0ff47413          	zext.b	s0,s0
    1320:	88818d23          	sb	s0,-1894(gp) # 200003f2 <high_pin_count>
    1324:	06400913          	li	s2,100
    1328:	00897c63          	bgeu	s2,s0,1340 <computeDshotDMA+0x104>
    132c:	4405                	li	s0,1
    132e:	8e818023          	sb	s0,-1824(gp) # 20000438 <dshot_telemetry>
    1332:	443d                	li	s0,15
    1334:	40e40733          	sub	a4,s0,a4
    1338:	0ff77713          	zext.b	a4,a4
    133c:	a011                	j	1340 <computeDshotDMA+0x104>
    133e:	f875                	bnez	s0,1332 <computeDshotDMA+0xf6>
    1340:	1ad71063          	bne	a4,a3,14e0 <computeDshotDMA+0x2a4>
    1344:	8a019723          	sh	zero,-1874(gp) # 20000406 <signaltimeout>
    1348:	8961d703          	lhu	a4,-1898(gp) # 200003ee <dshot_goodcounts>
    134c:	0705                	addi	a4,a4,1
    134e:	88e19b23          	sh	a4,-1898(gp) # 200003ee <dshot_goodcounts>
    1352:	4705                	li	a4,1
    1354:	00e39463          	bne	t2,a4,135c <computeDshotDMA+0x120>
    1358:	8e718123          	sb	t2,-1822(gp) # 2000043a <send_telemetry>
    135c:	07aa                	slli	a5,a5,0xa
    135e:	0ea6                	slli	t4,t4,0x9
    1360:	01d7e7b3          	or	a5,a5,t4
    1364:	0057e7b3          	or	a5,a5,t0
    1368:	0fa2                	slli	t6,t6,0x8
    136a:	01f7e7b3          	or	a5,a5,t6
    136e:	0f1e                	slli	t5,t5,0x7
    1370:	01e7e7b3          	or	a5,a5,t5
    1374:	059a                	slli	a1,a1,0x6
    1376:	8fcd                	or	a5,a5,a1
    1378:	0e16                	slli	t3,t3,0x5
    137a:	01c7e7b3          	or	a5,a5,t3
    137e:	0312                	slli	t1,t1,0x4
    1380:	0067e7b3          	or	a5,a5,t1
    1384:	088e                	slli	a7,a7,0x3
    1386:	0117e7b3          	or	a5,a5,a7
    138a:	080a                	slli	a6,a6,0x2
    138c:	0107e7b3          	or	a5,a5,a6
    1390:	0506                	slli	a0,a0,0x1
    1392:	8fc9                	or	a5,a5,a0
    1394:	02f00713          	li	a4,47
    1398:	00f75c63          	bge	a4,a5,13b0 <computeDshotDMA+0x174>
    139c:	8ac18703          	lb	a4,-1876(gp) # 20000404 <EDT_ARMED>
    13a0:	c315                	beqz	a4,13c4 <computeDshotDMA+0x188>
    13a2:	8cf19023          	sh	a5,-1856(gp) # 20000418 <newinput>
    13a6:	8c0183a3          	sb	zero,-1849(gp) # 2000041f <dshotcommand>
    13aa:	88018e23          	sb	zero,-1892(gp) # 200003f4 <command_count>
    13ae:	bd8d                	j	1220 <__riscv_restore_0>
    13b0:	fff78713          	addi	a4,a5,-1
    13b4:	02e00693          	li	a3,46
    13b8:	04e6e663          	bltu	a3,a4,1404 <computeDshotDMA+0x1c8>
    13bc:	8c019023          	sh	zero,-1856(gp) # 20000418 <newinput>
    13c0:	8cf183a3          	sb	a5,-1849(gp) # 2000041f <dshotcommand>
    13c4:	8c71c783          	lbu	a5,-1849(gp) # 2000041f <dshotcommand>
    13c8:	d3fd                	beqz	a5,13ae <computeDshotDMA+0x172>
    13ca:	8da1c703          	lbu	a4,-1830(gp) # 20000432 <running>
    13ce:	f365                	bnez	a4,13ae <computeDshotDMA+0x172>
    13d0:	de79                	beqz	a2,13ae <computeDshotDMA+0x172>
    13d2:	89b1c603          	lbu	a2,-1893(gp) # 200003f3 <last_command>
    13d6:	00f60663          	beq	a2,a5,13e2 <computeDshotDMA+0x1a6>
    13da:	88f18da3          	sb	a5,-1893(gp) # 200003f3 <last_command>
    13de:	88018e23          	sb	zero,-1892(gp) # 200003f4 <command_count>
    13e2:	4711                	li	a4,4
    13e4:	00f76563          	bltu	a4,a5,13ee <computeDshotDMA+0x1b2>
    13e8:	4719                	li	a4,6
    13ea:	88e18e23          	sb	a4,-1892(gp) # 200003f4 <command_count>
    13ee:	89c1c703          	lbu	a4,-1892(gp) # 200003f4 <command_count>
    13f2:	4615                	li	a2,5
    13f4:	0705                	addi	a4,a4,1
    13f6:	0ff77713          	zext.b	a4,a4
    13fa:	02e66463          	bltu	a2,a4,1422 <computeDshotDMA+0x1e6>
    13fe:	88e18e23          	sb	a4,-1892(gp) # 200003f4 <command_count>
    1402:	b775                	j	13ae <computeDshotDMA+0x172>
    1404:	f3e1                	bnez	a5,13c4 <computeDshotDMA+0x188>
    1406:	8ad18703          	lb	a4,-1875(gp) # 20000405 <EDT_ARM_ENABLE>
    140a:	4785                	li	a5,1
    140c:	00f71463          	bne	a4,a5,1414 <computeDshotDMA+0x1d8>
    1410:	8a018623          	sb	zero,-1876(gp) # 20000404 <EDT_ARMED>
    1414:	8c019023          	sh	zero,-1856(gp) # 20000418 <newinput>
    1418:	8c0183a3          	sb	zero,-1849(gp) # 2000041f <dshotcommand>
    141c:	88018e23          	sb	zero,-1892(gp) # 200003f4 <command_count>
    1420:	b755                	j	13c4 <computeDshotDMA+0x188>
    1422:	17fd                	addi	a5,a5,-1
    1424:	88018e23          	sb	zero,-1892(gp) # 200003f4 <command_count>
    1428:	0ff7f793          	zext.b	a5,a5
    142c:	4751                	li	a4,20
    142e:	00f76b63          	bltu	a4,a5,1444 <computeDshotDMA+0x208>
    1432:	6719                	lui	a4,0x6
    1434:	078a                	slli	a5,a5,0x2
    1436:	3d470713          	addi	a4,a4,980 # 63d4 <__clzsi2+0x6a>
    143a:	97ba                	add	a5,a5,a4
    143c:	439c                	lw	a5,0(a5)
    143e:	8782                	jr	a5
    1440:	6a8020ef          	jal	ra,3ae8 <playInputTune>
    1444:	8c71c703          	lbu	a4,-1849(gp) # 2000041f <dshotcommand>
    1448:	8c0183a3          	sb	zero,-1849(gp) # 2000041f <dshotcommand>
    144c:	8ce18fa3          	sb	a4,-1825(gp) # 20000437 <last_dshot_command>
    1450:	bfb9                	j	13ae <computeDshotDMA+0x172>
    1452:	620020ef          	jal	ra,3a72 <playInputTune2>
    1456:	b7fd                	j	1444 <computeDshotDMA+0x208>
    1458:	7b8020ef          	jal	ra,3c10 <playBeaconTune3>
    145c:	b7e5                	j	1444 <computeDshotDMA+0x208>
    145e:	576020ef          	jal	ra,39d4 <playStartupTune>
    1462:	b7cd                	j	1444 <computeDshotDMA+0x208>
    1464:	92018aa3          	sb	zero,-1739(gp) # 2000048d <dir_reversed>
    1468:	4785                	li	a5,1
    146a:	80f18623          	sb	a5,-2036(gp) # 20000364 <forward>
    146e:	8ef18ea3          	sb	a5,-1795(gp) # 20000455 <play_tone_flag>
    1472:	bfc9                	j	1444 <computeDshotDMA+0x208>
    1474:	4705                	li	a4,1
    1476:	92e18aa3          	sb	a4,-1739(gp) # 2000048d <dir_reversed>
    147a:	80018623          	sb	zero,-2036(gp) # 20000364 <forward>
    147e:	4709                	li	a4,2
    1480:	8ee18ea3          	sb	a4,-1795(gp) # 20000455 <play_tone_flag>
    1484:	b7c1                	j	1444 <computeDshotDMA+0x208>
    1486:	92018a23          	sb	zero,-1740(gp) # 2000048c <bi_direction>
    148a:	bf6d                	j	1444 <computeDshotDMA+0x208>
    148c:	4705                	li	a4,1
    148e:	92e18a23          	sb	a4,-1740(gp) # 2000048c <bi_direction>
    1492:	bf4d                	j	1444 <computeDshotDMA+0x208>
    1494:	650000ef          	jal	ra,1ae4 <saveEEpromSettings>
    1498:	b775                	j	1444 <computeDshotDMA+0x208>
    149a:	4705                	li	a4,1
    149c:	88e18923          	sb	a4,-1902(gp) # 200003ea <dshot_extended_telemetry>
    14a0:	6785                	lui	a5,0x1
    14a2:	e0078793          	addi	a5,a5,-512 # e00 <__stack_size+0x600>
    14a6:	88f19823          	sh	a5,-1904(gp) # 200003e8 <send_extended_dshot>
    14aa:	8ad18783          	lb	a5,-1875(gp) # 20000405 <EDT_ARM_ENABLE>
    14ae:	f8e79be3          	bne	a5,a4,1444 <computeDshotDMA+0x208>
    14b2:	8af18623          	sb	a5,-1876(gp) # 20000404 <EDT_ARMED>
    14b6:	b779                	j	1444 <computeDshotDMA+0x208>
    14b8:	88018923          	sb	zero,-1902(gp) # 200003ea <dshot_extended_telemetry>
    14bc:	6785                	lui	a5,0x1
    14be:	eff78793          	addi	a5,a5,-257 # eff <__stack_size+0x6ff>
    14c2:	88f19823          	sh	a5,-1904(gp) # 200003e8 <send_extended_dshot>
    14c6:	bfbd                	j	1444 <computeDshotDMA+0x208>
    14c8:	9351c703          	lbu	a4,-1739(gp) # 2000048d <dir_reversed>
    14cc:	4785                	li	a5,1
    14ce:	8f99                	sub	a5,a5,a4
    14d0:	80f18623          	sb	a5,-2036(gp) # 20000364 <forward>
    14d4:	bf85                	j	1444 <computeDshotDMA+0x208>
    14d6:	9351c703          	lbu	a4,-1739(gp) # 2000048d <dir_reversed>
    14da:	80e18623          	sb	a4,-2036(gp) # 20000364 <forward>
    14de:	b79d                	j	1444 <computeDshotDMA+0x208>
    14e0:	8941d783          	lhu	a5,-1900(gp) # 200003ec <dshot_badcounts>
    14e4:	0785                	addi	a5,a5,1
    14e6:	88f19a23          	sh	a5,-1900(gp) # 200003ec <dshot_badcounts>
    14ea:	b5d1                	j	13ae <computeDshotDMA+0x172>
    14ec:	8082                	ret

000014ee <make_dshot_package>:
    14ee:	8901d703          	lhu	a4,-1904(gp) # 200003e8 <send_extended_dshot>
    14f2:	cf5d                	beqz	a4,15b0 <make_dshot_package+0xc2>
    14f4:	8ae1a023          	sw	a4,-1888(gp) # 200003f8 <dshot_full_number>
    14f8:	88019823          	sh	zero,-1904(gp) # 200003e8 <send_extended_dshot>
    14fc:	8a01a783          	lw	a5,-1888(gp) # 200003f8 <dshot_full_number>
    1500:	04000513          	li	a0,64
    1504:	4305                	li	t1,1
    1506:	01079713          	slli	a4,a5,0x10
    150a:	8341                	srli	a4,a4,0x10
    150c:	00875593          	srli	a1,a4,0x8
    1510:	00475693          	srli	a3,a4,0x4
    1514:	8ead                	xor	a3,a3,a1
    1516:	8f35                	xor	a4,a4,a3
    1518:	fff74713          	not	a4,a4
    151c:	8b3d                	andi	a4,a4,15
    151e:	0792                	slli	a5,a5,0x4
    1520:	8fd9                	or	a5,a5,a4
    1522:	6699                	lui	a3,0x6
    1524:	42868693          	addi	a3,a3,1064 # 6428 <gcr_encode_table>
    1528:	40c7d713          	srai	a4,a5,0xc
    152c:	8af1a023          	sw	a5,-1888(gp) # 200003f8 <dshot_full_number>
    1530:	9736                	add	a4,a4,a3
    1532:	00f7f613          	andi	a2,a5,15
    1536:	9636                	add	a2,a2,a3
    1538:	00070703          	lb	a4,0(a4)
    153c:	00060603          	lb	a2,0(a2)
    1540:	58fd                	li	a7,-1
    1542:	073e                	slli	a4,a4,0xf
    1544:	8f51                	or	a4,a4,a2
    1546:	4087d613          	srai	a2,a5,0x8
    154a:	8a3d                	andi	a2,a2,15
    154c:	8791                	srai	a5,a5,0x4
    154e:	9636                	add	a2,a2,a3
    1550:	8bbd                	andi	a5,a5,15
    1552:	96be                	add	a3,a3,a5
    1554:	00060603          	lb	a2,0(a2)
    1558:	00068783          	lb	a5,0(a3)
    155c:	062a                	slli	a2,a2,0xa
    155e:	8f51                	or	a4,a4,a2
    1560:	0796                	slli	a5,a5,0x5
    1562:	8fd9                	or	a5,a5,a4
    1564:	8af1a223          	sw	a5,-1884(gp) # 200003fc <gcrnumber>
    1568:	9521c583          	lbu	a1,-1710(gp) # 200004aa <buffer_padding>
    156c:	96418693          	addi	a3,gp,-1692 # 200004bc <gcr>
    1570:	00158613          	addi	a2,a1,1
    1574:	060a                	slli	a2,a2,0x2
    1576:	9636                	add	a2,a2,a3
    1578:	058a                	slli	a1,a1,0x2
    157a:	c208                	sw	a0,0(a2)
    157c:	96ae                	add	a3,a3,a1
    157e:	454d                	li	a0,19
    1580:	96418613          	addi	a2,gp,-1692 # 200004bc <gcr>
    1584:	0046a803          	lw	a6,4(a3)
    1588:	00a31733          	sll	a4,t1,a0
    158c:	8f7d                	and	a4,a4,a5
    158e:	00a75733          	srl	a4,a4,a0
    1592:	00685813          	srli	a6,a6,0x6
    1596:	01074733          	xor	a4,a4,a6
    159a:	071a                	slli	a4,a4,0x6
    159c:	c698                	sw	a4,8(a3)
    159e:	157d                	addi	a0,a0,-1
    15a0:	0691                	addi	a3,a3,4
    15a2:	ff1511e3          	bne	a0,a7,1584 <make_dshot_package+0x96>
    15a6:	00b60733          	add	a4,a2,a1
    15aa:	00072023          	sw	zero,0(a4)
    15ae:	8082                	ret
    15b0:	8da1c783          	lbu	a5,-1830(gp) # 20000432 <running>
    15b4:	e789                	bnez	a5,15be <make_dshot_package+0xd0>
    15b6:	67c1                	lui	a5,0x10
    15b8:	17fd                	addi	a5,a5,-1 # ffff <_data_lma+0x9a07>
    15ba:	8ef1a823          	sw	a5,-1808(gp) # 20000448 <e_com_time>
    15be:	8f01a703          	lw	a4,-1808(gp) # 20000448 <e_com_time>
    15c2:	4785                	li	a5,1
    15c4:	40f75693          	srai	a3,a4,0xf
    15c8:	02f68a63          	beq	a3,a5,15fc <make_dshot_package+0x10e>
    15cc:	47bd                	li	a5,15
    15ce:	46a1                	li	a3,8
    15d0:	4605                	li	a2,1
    15d2:	17fd                	addi	a5,a5,-1
    15d4:	00d79463          	bne	a5,a3,15dc <make_dshot_package+0xee>
    15d8:	4781                	li	a5,0
    15da:	a031                	j	15e6 <make_dshot_package+0xf8>
    15dc:	40f755b3          	sra	a1,a4,a5
    15e0:	fec599e3          	bne	a1,a2,15d2 <make_dshot_package+0xe4>
    15e4:	17e1                	addi	a5,a5,-8
    15e6:	8af1a423          	sw	a5,-1880(gp) # 20000400 <shift_amount>
    15ea:	40f75733          	sra	a4,a4,a5
    15ee:	00979693          	slli	a3,a5,0x9
    15f2:	00e6e7b3          	or	a5,a3,a4
    15f6:	8af1a023          	sw	a5,-1888(gp) # 200003f8 <dshot_full_number>
    15fa:	b709                	j	14fc <make_dshot_package+0xe>
    15fc:	47bd                	li	a5,15
    15fe:	b7dd                	j	15e4 <make_dshot_package+0xf6>

00001600 <map>:
    1600:	87aa                	mv	a5,a0
    1602:	00b55363          	bge	a0,a1,1608 <map+0x8>
    1606:	87ae                	mv	a5,a1
    1608:	00f65363          	bge	a2,a5,160e <map+0xe>
    160c:	87b2                	mv	a5,a2
    160e:	8f8d                	sub	a5,a5,a1
    1610:	8f15                	sub	a4,a4,a3
    1612:	02e787b3          	mul	a5,a5,a4
    1616:	8e0d                	sub	a2,a2,a1
    1618:	02c7c7b3          	div	a5,a5,a2
    161c:	00d78533          	add	a0,a5,a3
    1620:	8082                	ret

00001622 <getAbsDif>:
    1622:	87aa                	mv	a5,a0
    1624:	8d0d                	sub	a0,a0,a1
    1626:	00055463          	bgez	a0,162e <getAbsDif+0xc>
    162a:	40f58533          	sub	a0,a1,a5
    162e:	8082                	ret

00001630 <delayMicros>:
    1630:	47e1                	li	a5,24
    1632:	02f50533          	mul	a0,a0,a5
    1636:	0001                	nop
    1638:	157d                	addi	a0,a0,-1
    163a:	fd75                	bnez	a0,1636 <delayMicros+0x6>
    163c:	8082                	ret

0000163e <delayMillis>:
    163e:	bbfff2ef          	jal	t0,11fc <__riscv_save_0>
    1642:	842a                	mv	s0,a0
    1644:	3e800513          	li	a0,1000
    1648:	147d                	addi	s0,s0,-1
    164a:	37dd                	jal	1630 <delayMicros>
    164c:	fc65                	bnez	s0,1644 <delayMillis+0x6>
    164e:	bec9                	j	1220 <__riscv_restore_0>

00001650 <checkForHighSignal>:
    1650:	badff2ef          	jal	t0,11fc <__riscv_save_0>
    1654:	7ca020ef          	jal	ra,3e1e <changeToInput>
    1658:	400117b7          	lui	a5,0x40011
    165c:	80078793          	addi	a5,a5,-2048 # 40010800 <_eusrstack+0x2000b900>
    1660:	4398                	lw	a4,0(a5)
    1662:	3e800513          	li	a0,1000
    1666:	3e800413          	li	s0,1000
    166a:	9b41                	andi	a4,a4,-16
    166c:	c398                	sw	a4,0(a5)
    166e:	4398                	lw	a4,0(a5)
    1670:	40011937          	lui	s2,0x40011
    1674:	00876713          	ori	a4,a4,8
    1678:	c398                	sw	a4,0(a5)
    167a:	4705                	li	a4,1
    167c:	cbd8                	sw	a4,20(a5)
    167e:	3f4d                	jal	1630 <delayMicros>
    1680:	80090793          	addi	a5,s2,-2048 # 40010800 <_eusrstack+0x2000b900>
    1684:	479c                	lw	a5,8(a5)
    1686:	8b85                	andi	a5,a5,1
    1688:	e791                	bnez	a5,1694 <checkForHighSignal+0x44>
    168a:	9001d783          	lhu	a5,-1792(gp) # 20000458 <low_pin_count>
    168e:	0785                	addi	a5,a5,1
    1690:	90f19023          	sh	a5,-1792(gp) # 20000458 <low_pin_count>
    1694:	4529                	li	a0,10
    1696:	147d                	addi	s0,s0,-1
    1698:	3f61                	jal	1630 <delayMicros>
    169a:	f07d                	bnez	s0,1680 <checkForHighSignal+0x30>
    169c:	400117b7          	lui	a5,0x40011
    16a0:	80078793          	addi	a5,a5,-2048 # 40010800 <_eusrstack+0x2000b900>
    16a4:	4398                	lw	a4,0(a5)
    16a6:	9b41                	andi	a4,a4,-16
    16a8:	c398                	sw	a4,0(a5)
    16aa:	4398                	lw	a4,0(a5)
    16ac:	00476713          	ori	a4,a4,4
    16b0:	c398                	sw	a4,0(a5)
    16b2:	9001d703          	lhu	a4,-1792(gp) # 20000458 <low_pin_count>
    16b6:	4795                	li	a5,5
    16b8:	00e7eb63          	bltu	a5,a4,16ce <checkForHighSignal+0x7e>
    16bc:	671010ef          	jal	ra,352c <allOff>
    16c0:	beef07b7          	lui	a5,0xbeef0
    16c4:	e000e737          	lui	a4,0xe000e
    16c8:	08078793          	addi	a5,a5,128 # beef0080 <_eusrstack+0x9eeeb180>
    16cc:	c73c                	sw	a5,72(a4)
    16ce:	be89                	j	1220 <__riscv_restore_0>

000016d0 <doPidCalculations>:
    16d0:	8d91                	sub	a1,a1,a2
    16d2:	4d14                	lw	a3,24(a0)
    16d4:	87aa                	mv	a5,a0
    16d6:	5110                	lw	a2,32(a0)
    16d8:	c10c                	sw	a1,0(a0)
    16da:	4508                	lw	a0,8(a0)
    16dc:	00b68733          	add	a4,a3,a1
    16e0:	02a70733          	mul	a4,a4,a0
    16e4:	4b88                	lw	a0,16(a5)
    16e6:	972a                	add	a4,a4,a0
    16e8:	00e65363          	bge	a2,a4,16ee <doPidCalculations+0x1e>
    16ec:	8732                	mv	a4,a2
    16ee:	40c00633          	neg	a2,a2
    16f2:	00c75363          	bge	a4,a2,16f8 <doPidCalculations+0x28>
    16f6:	8732                	mv	a4,a2
    16f8:	47d0                	lw	a2,12(a5)
    16fa:	43c8                	lw	a0,4(a5)
    16fc:	40d586b3          	sub	a3,a1,a3
    1700:	02c686b3          	mul	a3,a3,a2
    1704:	cf8c                	sw	a1,24(a5)
    1706:	53d0                	lw	a2,36(a5)
    1708:	cb98                	sw	a4,16(a5)
    170a:	02a585b3          	mul	a1,a1,a0
    170e:	cbd4                	sw	a3,20(a5)
    1710:	95b6                	add	a1,a1,a3
    1712:	00e58533          	add	a0,a1,a4
    1716:	00a65363          	bge	a2,a0,171c <doPidCalculations+0x4c>
    171a:	8532                	mv	a0,a2
    171c:	40c00633          	neg	a2,a2
    1720:	00c55363          	bge	a0,a2,1726 <doPidCalculations+0x56>
    1724:	8532                	mv	a0,a2
    1726:	cfc8                	sw	a0,28(a5)
    1728:	2bb0406f          	j	61e2 <__floatsisf>

0000172c <loadEEpromSettings>:
    172c:	ab7ff2ef          	jal	t0,11e2 <__riscv_save_4>
    1730:	080085b7          	lui	a1,0x8008
    1734:	a3818513          	addi	a0,gp,-1480 # 20000590 <eepromBuffer>
    1738:	0b000613          	li	a2,176
    173c:	c0058593          	addi	a1,a1,-1024 # 8007c00 <_data_lma+0x8001608>
    1740:	41b020ef          	jal	ra,435a <read_flash_bin>
    1744:	a3818713          	addi	a4,gp,-1480 # 20000590 <eepromBuffer>
    1748:	3b1c                	lbu	a5,17(a4)
    174a:	17fd                	addi	a5,a5,-1
    174c:	0017b793          	seqz	a5,a5
    1750:	92f18aa3          	sb	a5,-1739(gp) # 2000048d <dir_reversed>
    1754:	2b3c                	lbu	a5,18(a4)
    1756:	a3818413          	addi	s0,gp,-1480 # 20000590 <eepromBuffer>
    175a:	17fd                	addi	a5,a5,-1
    175c:	0017b793          	seqz	a5,a5
    1760:	92f18a23          	sb	a5,-1740(gp) # 2000048c <bi_direction>
    1764:	3b3c                	lbu	a5,19(a4)
    1766:	4705                	li	a4,1
    1768:	00e79463          	bne	a5,a4,1770 <loadEEpromSettings+0x44>
    176c:	92f188a3          	sb	a5,-1743(gp) # 20000489 <use_sin_start>
    1770:	285c                	lbu	a5,20(s0)
    1772:	17fd                	addi	a5,a5,-1
    1774:	0017b793          	seqz	a5,a5
    1778:	84f18ca3          	sb	a5,-1959(gp) # 200003b1 <comp_pwm>
    177c:	385c                	lbu	a5,21(s0)
    177e:	17fd                	addi	a5,a5,-1
    1780:	0017b793          	seqz	a5,a5
    1784:	84f18c23          	sb	a5,-1960(gp) # 200003b0 <VARIABLE_PWM>
    1788:	287c                	lbu	a5,22(s0)
    178a:	17fd                	addi	a5,a5,-1
    178c:	0017b793          	seqz	a5,a5
    1790:	84f18ba3          	sb	a5,-1961(gp) # 200003af <stuck_rotor_protection>
    1794:	387c                	lbu	a5,23(s0)
    1796:	470d                	li	a4,3
    1798:	00f77363          	bgeu	a4,a5,179e <loadEEpromSettings+0x72>
    179c:	4789                	li	a5,2
    179e:	2c08                	lbu	a0,24(s0)
    17a0:	84f18a23          	sb	a5,-1964(gp) # 200003ac <advance_level>
    17a4:	ff850793          	addi	a5,a0,-8
    17a8:	0ff7f793          	zext.b	a5,a5
    17ac:	02800713          	li	a4,40
    17b0:	26f76b63          	bltu	a4,a5,1a26 <loadEEpromSettings+0x2fa>
    17b4:	fe850793          	addi	a5,a0,-24
    17b8:	0ff7f793          	zext.b	a5,a5
    17bc:	4761                	li	a4,24
    17be:	00f76c63          	bltu	a4,a5,17d6 <loadEEpromSettings+0xaa>
    17c2:	3e700713          	li	a4,999
    17c6:	7cf00693          	li	a3,1999
    17ca:	03000613          	li	a2,48
    17ce:	45e1                	li	a1,24
    17d0:	3d05                	jal	1600 <map>
    17d2:	80a19f23          	sh	a0,-2018(gp) # 20000376 <TIMER1_MAX_ARR>
    17d6:	2c08                	lbu	a0,24(s0)
    17d8:	472d                	li	a4,11
    17da:	ff450793          	addi	a5,a0,-12
    17de:	0ff7f793          	zext.b	a5,a5
    17e2:	00f76c63          	bltu	a4,a5,17fa <loadEEpromSettings+0xce>
    17e6:	6685                	lui	a3,0x1
    17e8:	7cf00713          	li	a4,1999
    17ec:	f9e68693          	addi	a3,a3,-98 # f9e <__stack_size+0x79e>
    17f0:	4661                	li	a2,24
    17f2:	45b1                	li	a1,12
    17f4:	3531                	jal	1600 <map>
    17f6:	80a19f23          	sh	a0,-2018(gp) # 20000376 <TIMER1_MAX_ARR>
    17fa:	2c08                	lbu	a0,24(s0)
    17fc:	470d                	li	a4,3
    17fe:	ff850793          	addi	a5,a0,-8
    1802:	0ff7f793          	zext.b	a5,a5
    1806:	00f76c63          	bltu	a4,a5,181e <loadEEpromSettings+0xf2>
    180a:	6685                	lui	a3,0x1
    180c:	bb568713          	addi	a4,a3,-1099 # bb5 <__stack_size+0x3b5>
    1810:	4641                	li	a2,16
    1812:	76d68693          	addi	a3,a3,1901
    1816:	459d                	li	a1,7
    1818:	33e5                	jal	1600 <map>
    181a:	80a19f23          	sh	a0,-2018(gp) # 20000376 <TIMER1_MAX_ARR>
    181e:	81e1d783          	lhu	a5,-2018(gp) # 20000376 <TIMER1_MAX_ARR>
    1822:	40013737          	lui	a4,0x40013
    1826:	c2f71623          	sh	a5,-980(a4) # 40012c2c <_eusrstack+0x2000dd2c>
    182a:	80f19a23          	sh	a5,-2028(gp) # 2000036c <throttle_max_at_high_rpm>
    182e:	80f19e23          	sh	a5,-2020(gp) # 20000374 <duty_cycle_maximum>
    1832:	3c1c                	lbu	a5,25(s0)
    1834:	06400693          	li	a3,100
    1838:	fce78713          	addi	a4,a5,-50
    183c:	0ff77713          	zext.b	a4,a4
    1840:	1ee6ec63          	bltu	a3,a4,1a38 <loadEEpromSettings+0x30c>
    1844:	81e1d603          	lhu	a2,-2018(gp) # 20000376 <TIMER1_MAX_ARR>
    1848:	02d78713          	addi	a4,a5,45
    184c:	8385                	srli	a5,a5,0x1
    184e:	07bd                	addi	a5,a5,15
    1850:	02c787b3          	mul	a5,a5,a2
    1854:	0ff77713          	zext.b	a4,a4
    1858:	7d000693          	li	a3,2000
    185c:	02c70733          	mul	a4,a4,a2
    1860:	02d7c7b3          	div	a5,a5,a3
    1864:	02d74733          	div	a4,a4,a3
    1868:	07c2                	slli	a5,a5,0x10
    186a:	83c1                	srli	a5,a5,0x10
    186c:	82f19223          	sh	a5,-2012(gp) # 2000037c <minimum_duty_cycle>
    1870:	07a9                	addi	a5,a5,10
    1872:	82e19723          	sh	a4,-2002(gp) # 20000386 <min_startup_duty>
    1876:	82f19123          	sh	a5,-2014(gp) # 2000037a <stall_protect_minimum_duty>
    187a:	2c3c                	lbu	a5,26(s0)
    187c:	02800713          	li	a4,40
    1880:	02e787b3          	mul	a5,a5,a4
    1884:	4515                	li	a0,5
    1886:	07d1                	addi	a5,a5,20
    1888:	84f19923          	sh	a5,-1966(gp) # 200003aa <motor_kv>
    188c:	3c3c                	lbu	a5,27(s0)
    188e:	84f18823          	sb	a5,-1968(gp) # 200003a8 <motor_poles>
    1892:	2c5c                	lbu	a5,28(s0)
    1894:	17fd                	addi	a5,a5,-1
    1896:	0017b793          	seqz	a5,a5
    189a:	92f189a3          	sb	a5,-1741(gp) # 2000048b <brake_on_stop>
    189e:	3c5c                	lbu	a5,29(s0)
    18a0:	17fd                	addi	a5,a5,-1
    18a2:	0017b793          	seqz	a5,a5
    18a6:	92f18923          	sb	a5,-1742(gp) # 2000048a <stall_protection>
    18aa:	7dd010ef          	jal	ra,3886 <setVolume>
    18ae:	301c                	lbu	a5,1(s0)
    18b0:	1c078d63          	beqz	a5,1a8a <loadEEpromSettings+0x35e>
    18b4:	2c68                	lbu	a0,30(s0)
    18b6:	47ad                	li	a5,11
    18b8:	00a7f363          	bgeu	a5,a0,18be <loadEEpromSettings+0x192>
    18bc:	4515                	li	a0,5
    18be:	7c9010ef          	jal	ra,3886 <setVolume>
    18c2:	3c7c                	lbu	a5,31(s0)
    18c4:	46d1                	li	a3,20
    18c6:	17fd                	addi	a5,a5,-1
    18c8:	0017b793          	seqz	a5,a5
    18cc:	92f18823          	sb	a5,-1744(gp) # 20000488 <TLM_ON_INTERVAL>
    18d0:	02044783          	lbu	a5,32(s0)
    18d4:	17778793          	addi	a5,a5,375
    18d8:	0786                	slli	a5,a5,0x1
    18da:	84f19123          	sh	a5,-1982(gp) # 2000039a <servo_low_threshold>
    18de:	02144783          	lbu	a5,33(s0)
    18e2:	36b78793          	addi	a5,a5,875
    18e6:	0786                	slli	a5,a5,0x1
    18e8:	84f19023          	sh	a5,-1984(gp) # 20000398 <servo_high_threshold>
    18ec:	02244783          	lbu	a5,34(s0)
    18f0:	55e78793          	addi	a5,a5,1374
    18f4:	82f19f23          	sh	a5,-1986(gp) # 20000396 <servo_neutral>
    18f8:	02344703          	lbu	a4,35(s0)
    18fc:	82e18e23          	sb	a4,-1988(gp) # 20000394 <servo_dead_band>
    1900:	02444783          	lbu	a5,36(s0)
    1904:	17fd                	addi	a5,a5,-1
    1906:	0017b793          	seqz	a5,a5
    190a:	92f186a3          	sb	a5,-1747(gp) # 20000485 <LOW_VOLTAGE_CUTOFF>
    190e:	02544783          	lbu	a5,37(s0)
    1912:	0fa78793          	addi	a5,a5,250
    1916:	82f19d23          	sh	a5,-1990(gp) # 20000392 <low_cell_volt_cutoff>
    191a:	02644783          	lbu	a5,38(s0)
    191e:	17fd                	addi	a5,a5,-1
    1920:	0017b793          	seqz	a5,a5
    1924:	92f18623          	sb	a5,-1748(gp) # 20000484 <RC_CAR_REVERSE>
    1928:	02844703          	lbu	a4,40(s0)
    192c:	920187a3          	sb	zero,-1745(gp) # 20000487 <USE_HALL_SENSOR>
    1930:	ffb70793          	addi	a5,a4,-5
    1934:	0ff7f793          	zext.b	a5,a5
    1938:	00f6e463          	bltu	a3,a5,1940 <loadEEpromSettings+0x214>
    193c:	84e18423          	sb	a4,-1976(gp) # 200003a0 <sine_mode_changeover_thottle_level>
    1940:	02944703          	lbu	a4,41(s0)
    1944:	46a5                	li	a3,9
    1946:	fff70793          	addi	a5,a4,-1
    194a:	0ff7f793          	zext.b	a5,a5
    194e:	00f6e463          	bltu	a3,a5,1956 <loadEEpromSettings+0x22a>
    1952:	84e185a3          	sb	a4,-1973(gp) # 200003a3 <drag_brake_strength>
    1956:	02a44783          	lbu	a5,42(s0)
    195a:	46a1                	li	a3,8
    195c:	fff78713          	addi	a4,a5,-1
    1960:	0ff77713          	zext.b	a4,a4
    1964:	04e6e763          	bltu	a3,a4,19b2 <loadEEpromSettings+0x286>
    1968:	84f18523          	sb	a5,-1974(gp) # 200003a2 <driving_brake_strength>
    196c:	5759                	li	a4,-10
    196e:	02e787b3          	mul	a5,a5,a4
    1972:	fc378793          	addi	a5,a5,-61
    1976:	0ff7f793          	zext.b	a5,a5
    197a:	84f184a3          	sb	a5,-1975(gp) # 200003a1 <dead_time_override>
    197e:	3c18                	lbu	a4,25(s0)
    1980:	00f706b3          	add	a3,a4,a5
    1984:	8305                	srli	a4,a4,0x1
    1986:	82d19723          	sh	a3,-2002(gp) # 20000386 <min_startup_duty>
    198a:	973e                	add	a4,a4,a5
    198c:	82e19223          	sh	a4,-2012(gp) # 2000037c <minimum_duty_cycle>
    1990:	8161d703          	lhu	a4,-2026(gp) # 2000036e <throttle_max_at_low_rpm>
    1994:	973e                	add	a4,a4,a5
    1996:	80e19b23          	sh	a4,-2026(gp) # 2000036e <throttle_max_at_low_rpm>
    199a:	8261d703          	lhu	a4,-2010(gp) # 2000037e <startup_max_duty_cycle>
    199e:	973e                	add	a4,a4,a5
    19a0:	82e19323          	sh	a4,-2010(gp) # 2000037e <startup_max_duty_cycle>
    19a4:	40013737          	lui	a4,0x40013
    19a8:	c4475683          	lhu	a3,-956(a4) # 40012c44 <_eusrstack+0x2000dd44>
    19ac:	8fd5                	or	a5,a5,a3
    19ae:	c4f71223          	sh	a5,-956(a4)
    19b2:	02b44703          	lbu	a4,43(s0)
    19b6:	04600693          	li	a3,70
    19ba:	fba70793          	addi	a5,a4,-70
    19be:	0ff7f793          	zext.b	a5,a5
    19c2:	00f6e463          	bltu	a3,a5,19ca <loadEEpromSettings+0x29e>
    19c6:	84e18aa3          	sb	a4,-1963(gp) # 200003ad <TEMPERATURE_LIMIT>
    19ca:	02c44783          	lbu	a5,44(s0)
    19ce:	06200693          	li	a3,98
    19d2:	fff78713          	addi	a4,a5,-1
    19d6:	0ff77713          	zext.b	a4,a4
    19da:	00e6e863          	bltu	a3,a4,19ea <loadEEpromSettings+0x2be>
    19de:	0786                	slli	a5,a5,0x1
    19e0:	84f19723          	sh	a5,-1970(gp) # 200003a6 <CURRENT_LIMIT>
    19e4:	4705                	li	a4,1
    19e6:	92e18023          	sb	a4,-1760(gp) # 20000478 <use_current_limit>
    19ea:	02d44703          	lbu	a4,45(s0)
    19ee:	46a5                	li	a3,9
    19f0:	fff70793          	addi	a5,a4,-1
    19f4:	0ff7f793          	zext.b	a5,a5
    19f8:	00f6e463          	bltu	a3,a5,1a00 <loadEEpromSettings+0x2d4>
    19fc:	84e18623          	sb	a4,-1972(gp) # 200003a4 <sine_mode_power>
    1a00:	02e44783          	lbu	a5,46(s0)
    1a04:	4725                	li	a4,9
    1a06:	0cf76763          	bltu	a4,a5,1ad4 <loadEEpromSettings+0x3a8>
    1a0a:	4709                	li	a4,2
    1a0c:	0ae78863          	beq	a5,a4,1abc <loadEEpromSettings+0x390>
    1a10:	02f76d63          	bltu	a4,a5,1a4a <loadEEpromSettings+0x31e>
    1a14:	e3c5                	bnez	a5,1ab4 <loadEEpromSettings+0x388>
    1a16:	8a018e23          	sb	zero,-1860(gp) # 20000414 <servoPwm>
    1a1a:	8a018ea3          	sb	zero,-1859(gp) # 20000415 <dshot>
    1a1e:	4785                	li	a5,1
    1a20:	8af18623          	sb	a5,-1876(gp) # 20000404 <EDT_ARMED>
    1a24:	a035                	j	1a50 <loadEEpromSettings+0x324>
    1a26:	7cf00713          	li	a4,1999
    1a2a:	82e19023          	sh	a4,-2016(gp) # 20000378 <tim1_arr>
    1a2e:	400137b7          	lui	a5,0x40013
    1a32:	c2e79623          	sh	a4,-980(a5) # 40012c2c <_eusrstack+0x2000dd2c>
    1a36:	bbf5                	j	1832 <loadEEpromSettings+0x106>
    1a38:	09600793          	li	a5,150
    1a3c:	82f19723          	sh	a5,-2002(gp) # 20000386 <min_startup_duty>
    1a40:	05500793          	li	a5,85
    1a44:	82f19223          	sh	a5,-2012(gp) # 2000037c <minimum_duty_cycle>
    1a48:	bd0d                	j	187a <loadEEpromSettings+0x14e>
    1a4a:	4711                	li	a4,4
    1a4c:	06e78c63          	beq	a5,a4,1ac4 <loadEEpromSettings+0x398>
    1a50:	8521d783          	lhu	a5,-1966(gp) # 200003aa <motor_kv>
    1a54:	12b00713          	li	a4,299
    1a58:	00f76463          	bltu	a4,a5,1a60 <loadEEpromSettings+0x334>
    1a5c:	820188a3          	sb	zero,-1999(gp) # 20000389 <low_rpm_throttle_limit>
    1a60:	85018703          	lb	a4,-1968(gp) # 200003a8 <motor_poles>
    1a64:	02000693          	li	a3,32
    1a68:	02e6c6b3          	div	a3,a3,a4
    1a6c:	06400713          	li	a4,100
    1a70:	02e7d733          	divu	a4,a5,a4
    1a74:	02d74733          	div	a4,a4,a3
    1a78:	80e19d23          	sh	a4,-2022(gp) # 20000372 <low_rpm_level>
    1a7c:	4745                	li	a4,17
    1a7e:	02e7d7b3          	divu	a5,a5,a4
    1a82:	02d7c7b3          	div	a5,a5,a3
    1a86:	80f19c23          	sh	a5,-2024(gp) # 20000370 <high_rpm_level>
    1a8a:	8521d503          	lhu	a0,-1966(gp) # 200003aa <motor_kv>
    1a8e:	6605                	lui	a2,0x1
    1a90:	9c460693          	addi	a3,a2,-1596 # 9c4 <__stack_size+0x1c4>
    1a94:	4e200713          	li	a4,1250
    1a98:	bb860613          	addi	a2,a2,-1096
    1a9c:	12c00593          	li	a1,300
    1aa0:	3685                	jal	1600 <map>
    1aa2:	82a19a23          	sh	a0,-1996(gp) # 2000038c <reverse_speed_threshold>
    1aa6:	85918783          	lb	a5,-1959(gp) # 200003b1 <comp_pwm>
    1aaa:	e399                	bnez	a5,1ab0 <loadEEpromSettings+0x384>
    1aac:	92018a23          	sb	zero,-1740(gp) # 2000048c <bi_direction>
    1ab0:	f66ff06f          	j	1216 <__riscv_restore_4>
    1ab4:	4785                	li	a5,1
    1ab6:	8af18ea3          	sb	a5,-1859(gp) # 20000415 <dshot>
    1aba:	b79d                	j	1a20 <loadEEpromSettings+0x2f4>
    1abc:	4705                	li	a4,1
    1abe:	8ae18e23          	sb	a4,-1860(gp) # 20000414 <servoPwm>
    1ac2:	b779                	j	1a50 <loadEEpromSettings+0x324>
    1ac4:	4785                	li	a5,1
    1ac6:	8af186a3          	sb	a5,-1875(gp) # 20000405 <EDT_ARM_ENABLE>
    1aca:	8a018623          	sb	zero,-1876(gp) # 20000404 <EDT_ARMED>
    1ace:	8af18ea3          	sb	a5,-1859(gp) # 20000415 <dshot>
    1ad2:	bfbd                	j	1a50 <loadEEpromSettings+0x324>
    1ad4:	8a018ea3          	sb	zero,-1859(gp) # 20000415 <dshot>
    1ad8:	8a018e23          	sb	zero,-1860(gp) # 20000414 <servoPwm>
    1adc:	4705                	li	a4,1
    1ade:	8ae18623          	sb	a4,-1876(gp) # 20000404 <EDT_ARMED>
    1ae2:	b7bd                	j	1a50 <loadEEpromSettings+0x324>

00001ae4 <saveEEpromSettings>:
    1ae4:	85a1c703          	lbu	a4,-1958(gp) # 200003b2 <eeprom_layout_version>
    1ae8:	a3818793          	addi	a5,gp,-1480 # 20000590 <eepromBuffer>
    1aec:	b398                	sb	a4,1(a5)
    1aee:	93518703          	lb	a4,-1739(gp) # 2000048d <dir_reversed>
    1af2:	08008637          	lui	a2,0x8008
    1af6:	c0060613          	addi	a2,a2,-1024 # 8007c00 <_data_lma+0x8001608>
    1afa:	177d                	addi	a4,a4,-1
    1afc:	00173713          	seqz	a4,a4
    1b00:	bb98                	sb	a4,17(a5)
    1b02:	93418703          	lb	a4,-1740(gp) # 2000048c <bi_direction>
    1b06:	0b000593          	li	a1,176
    1b0a:	a3818513          	addi	a0,gp,-1480 # 20000590 <eepromBuffer>
    1b0e:	177d                	addi	a4,a4,-1
    1b10:	00173713          	seqz	a4,a4
    1b14:	abb8                	sb	a4,18(a5)
    1b16:	93118703          	lb	a4,-1743(gp) # 20000489 <use_sin_start>
    1b1a:	177d                	addi	a4,a4,-1
    1b1c:	00173713          	seqz	a4,a4
    1b20:	bbb8                	sb	a4,19(a5)
    1b22:	85918703          	lb	a4,-1959(gp) # 200003b1 <comp_pwm>
    1b26:	177d                	addi	a4,a4,-1
    1b28:	00173713          	seqz	a4,a4
    1b2c:	abd8                	sb	a4,20(a5)
    1b2e:	85818703          	lb	a4,-1960(gp) # 200003b0 <VARIABLE_PWM>
    1b32:	177d                	addi	a4,a4,-1
    1b34:	00173713          	seqz	a4,a4
    1b38:	bbd8                	sb	a4,21(a5)
    1b3a:	85718703          	lb	a4,-1961(gp) # 200003af <stuck_rotor_protection>
    1b3e:	177d                	addi	a4,a4,-1
    1b40:	00173713          	seqz	a4,a4
    1b44:	abf8                	sb	a4,22(a5)
    1b46:	8541c703          	lbu	a4,-1964(gp) # 200003ac <advance_level>
    1b4a:	bbf8                	sb	a4,23(a5)
    1b4c:	7680206f          	j	42b4 <save_flash_nolib>

00001b50 <getBemfState>:
    1b50:	400117b7          	lui	a5,0x40011
    1b54:	80078793          	addi	a5,a5,-2048 # 40010800 <_eusrstack+0x2000b900>
    1b58:	479c                	lw	a5,8(a5)
    1b5a:	81018703          	lb	a4,-2032(gp) # 20000368 <rising>
    1b5e:	8b91                	andi	a5,a5,4
    1b60:	cb01                	beqz	a4,1b70 <getBemfState+0x20>
    1b62:	eb81                	bnez	a5,1b72 <getBemfState+0x22>
    1b64:	8b61c783          	lbu	a5,-1866(gp) # 2000040e <bemfcounter>
    1b68:	0785                	addi	a5,a5,1
    1b6a:	8af18b23          	sb	a5,-1866(gp) # 2000040e <bemfcounter>
    1b6e:	8082                	ret
    1b70:	fbf5                	bnez	a5,1b64 <getBemfState+0x14>
    1b72:	8c81c783          	lbu	a5,-1848(gp) # 20000420 <bad_count>
    1b76:	0785                	addi	a5,a5,1
    1b78:	0ff7f793          	zext.b	a5,a5
    1b7c:	8cf18423          	sb	a5,-1848(gp) # 20000420 <bad_count>
    1b80:	8081c703          	lbu	a4,-2040(gp) # 20000360 <bad_count_threshold>
    1b84:	00f77563          	bgeu	a4,a5,1b8e <getBemfState+0x3e>
    1b88:	8a018b23          	sb	zero,-1866(gp) # 2000040e <bemfcounter>
    1b8c:	8082                	ret
    1b8e:	8082                	ret

00001b90 <commutate>:
    1b90:	e52ff2ef          	jal	t0,11e2 <__riscv_save_4>
    1b94:	20000637          	lui	a2,0x20000
    1b98:	35a60783          	lb	a5,858(a2) # 2000035a <step>
    1b9c:	200005b7          	lui	a1,0x20000
    1ba0:	3585d583          	lhu	a1,856(a1) # 20000358 <commutation_interval>
    1ba4:	fff78713          	addi	a4,a5,-1
    1ba8:	ae818693          	addi	a3,gp,-1304 # 20000640 <commutation_intervals>
    1bac:	0706                	slli	a4,a4,0x1
    1bae:	9736                	add	a4,a4,a3
    1bb0:	a30e                	sh	a1,0(a4)
    1bb2:	22ae                	lhu	a1,2(a3)
    1bb4:	229a                	lhu	a4,0(a3)
    1bb6:	0ff7f793          	zext.b	a5,a5
    1bba:	972e                	add	a4,a4,a1
    1bbc:	22ce                	lhu	a1,4(a3)
    1bbe:	972e                	add	a4,a4,a1
    1bc0:	22ee                	lhu	a1,6(a3)
    1bc2:	972e                	add	a4,a4,a1
    1bc4:	268e                	lhu	a1,8(a3)
    1bc6:	26b6                	lhu	a3,10(a3)
    1bc8:	972e                	add	a4,a4,a1
    1bca:	9736                	add	a4,a4,a3
    1bcc:	8705                	srai	a4,a4,0x1
    1bce:	8ee1a823          	sw	a4,-1808(gp) # 20000448 <e_com_time>
    1bd2:	80c18703          	lb	a4,-2036(gp) # 20000364 <forward>
    1bd6:	4685                	li	a3,1
    1bd8:	0cd71663          	bne	a4,a3,1ca4 <commutate+0x114>
    1bdc:	0785                	addi	a5,a5,1
    1bde:	07e2                	slli	a5,a5,0x18
    1be0:	87e1                	srai	a5,a5,0x18
    1be2:	4699                	li	a3,6
    1be4:	0af6cb63          	blt	a3,a5,1c9a <commutate+0x10a>
    1be8:	34f60d23          	sb	a5,858(a2)
    1bec:	35a60783          	lb	a5,858(a2)
    1bf0:	4709                	li	a4,2
    1bf2:	02e7e7b3          	rem	a5,a5,a4
    1bf6:	80f18823          	sb	a5,-2032(gp) # 20000368 <rising>
    1bfa:	8e118783          	lb	a5,-1823(gp) # 20000439 <prop_brake_active>
    1bfe:	e789                	bnez	a5,1c08 <commutate+0x78>
    1c00:	35a60503          	lb	a0,858(a2)
    1c04:	13d010ef          	jal	ra,3540 <comStep>
    1c08:	638020ef          	jal	ra,4240 <changeCompInput>
    1c0c:	8f81a703          	lw	a4,-1800(gp) # 20000450 <average_interval>
    1c10:	7d000793          	li	a5,2000
    1c14:	00e7fb63          	bgeu	a5,a4,1c2a <commutate+0x9a>
    1c18:	9321c783          	lbu	a5,-1742(gp) # 2000048a <stall_protection>
    1c1c:	92c1c703          	lbu	a4,-1748(gp) # 20000484 <RC_CAR_REVERSE>
    1c20:	8fd9                	or	a5,a5,a4
    1c22:	c781                	beqz	a5,1c2a <commutate+0x9a>
    1c24:	4705                	li	a4,1
    1c26:	8ce18f23          	sb	a4,-1826(gp) # 20000436 <old_routine>
    1c2a:	8a018b23          	sb	zero,-1866(gp) # 2000040e <bemfcounter>
    1c2e:	8a018ba3          	sb	zero,-1865(gp) # 2000040f <zcfound>
    1c32:	92818783          	lb	a5,-1752(gp) # 20000480 <use_speed_control_loop>
    1c36:	c3a5                	beqz	a5,1c96 <commutate+0x106>
    1c38:	8da1c783          	lbu	a5,-1830(gp) # 20000432 <running>
    1c3c:	cfa9                	beqz	a5,1c96 <commutate+0x106>
    1c3e:	92a1d603          	lhu	a2,-1750(gp) # 20000482 <target_e_com_time>
    1c42:	8f01a583          	lw	a1,-1808(gp) # 20000448 <e_com_time>
    1c46:	200004b7          	lui	s1,0x20000
    1c4a:	32048513          	addi	a0,s1,800 # 20000320 <speedPid>
    1c4e:	3449                	jal	16d0 <doPidCalculations>
    1c50:	87c1a583          	lw	a1,-1924(gp) # 200003d4 <SystemCoreClock+0x8>
    1c54:	5f1030ef          	jal	ra,5a44 <__divsf3>
    1c58:	9241a583          	lw	a1,-1756(gp) # 2000047c <input_override>
    1c5c:	281030ef          	jal	ra,56dc <__addsf3>
    1c60:	8781a983          	lw	s3,-1928(gp) # 200003d0 <SystemCoreClock+0x4>
    1c64:	842a                	mv	s0,a0
    1c66:	85ce                	mv	a1,s3
    1c68:	0c2040ef          	jal	ra,5d2a <__gesf2>
    1c6c:	04a04f63          	bgtz	a0,1cca <commutate+0x13a>
    1c70:	00000593          	li	a1,0
    1c74:	8522                	mv	a0,s0
    1c76:	14a040ef          	jal	ra,5dc0 <__lesf2>
    1c7a:	04054a63          	bltz	a0,1cce <commutate+0x13e>
    1c7e:	8b81a703          	lw	a4,-1864(gp) # 20000410 <zero_crosses>
    1c82:	9281a223          	sw	s0,-1756(gp) # 2000047c <input_override>
    1c86:	06300793          	li	a5,99
    1c8a:	00e7e663          	bltu	a5,a4,1c96 <commutate+0x106>
    1c8e:	32048493          	addi	s1,s1,800
    1c92:	0004a823          	sw	zero,16(s1)
    1c96:	d80ff06f          	j	1216 <__riscv_restore_4>
    1c9a:	34e60d23          	sb	a4,858(a2)
    1c9e:	8ee18e23          	sb	a4,-1796(gp) # 20000454 <desync_check>
    1ca2:	b7a9                	j	1bec <commutate+0x5c>
    1ca4:	17fd                	addi	a5,a5,-1
    1ca6:	07e2                	slli	a5,a5,0x18
    1ca8:	87e1                	srai	a5,a5,0x18
    1caa:	00f05a63          	blez	a5,1cbe <commutate+0x12e>
    1cae:	34f60d23          	sb	a5,858(a2)
    1cb2:	35a64783          	lbu	a5,858(a2)
    1cb6:	fff7c793          	not	a5,a5
    1cba:	8b85                	andi	a5,a5,1
    1cbc:	bf2d                	j	1bf6 <commutate+0x66>
    1cbe:	4799                	li	a5,6
    1cc0:	34f60d23          	sb	a5,858(a2)
    1cc4:	8ed18e23          	sb	a3,-1796(gp) # 20000454 <desync_check>
    1cc8:	b7ed                	j	1cb2 <commutate+0x122>
    1cca:	844e                	mv	s0,s3
    1ccc:	bf4d                	j	1c7e <commutate+0xee>
    1cce:	00000413          	li	s0,0
    1cd2:	b775                	j	1c7e <commutate+0xee>

00001cd4 <PeriodElapsedCallback>:
    1cd4:	d28ff2ef          	jal	t0,11fc <__riscv_save_0>
    1cd8:	40000737          	lui	a4,0x40000
    1cdc:	40c75783          	lhu	a5,1036(a4) # 4000040c <_eusrstack+0x1fffb50c>
    1ce0:	20000437          	lui	s0,0x20000
    1ce4:	07c2                	slli	a5,a5,0x10
    1ce6:	83c1                	srli	a5,a5,0x10
    1ce8:	9bf9                	andi	a5,a5,-2
    1cea:	07c2                	slli	a5,a5,0x10
    1cec:	83c1                	srli	a5,a5,0x10
    1cee:	40f71623          	sh	a5,1036(a4)
    1cf2:	35845783          	lhu	a5,856(s0) # 20000358 <commutation_interval>
    1cf6:	470d                	li	a4,3
    1cf8:	02e787b3          	mul	a5,a5,a4
    1cfc:	8b41d703          	lhu	a4,-1868(gp) # 2000040c <thiszctime>
    1d00:	97ba                	add	a5,a5,a4
    1d02:	8789                	srai	a5,a5,0x2
    1d04:	34f41c23          	sh	a5,856(s0)
    1d08:	3561                	jal	1b90 <commutate>
    1d0a:	35845783          	lhu	a5,856(s0)
    1d0e:	85418683          	lb	a3,-1964(gp) # 200003ac <advance_level>
    1d12:	0037d713          	srli	a4,a5,0x3
    1d16:	8385                	srli	a5,a5,0x1
    1d18:	02d70733          	mul	a4,a4,a3
    1d1c:	0742                	slli	a4,a4,0x10
    1d1e:	8341                	srli	a4,a4,0x10
    1d20:	8f99                	sub	a5,a5,a4
    1d22:	8ce19c23          	sh	a4,-1832(gp) # 20000430 <advance>
    1d26:	8af19823          	sh	a5,-1872(gp) # 20000408 <waitTime>
    1d2a:	8de18783          	lb	a5,-1826(gp) # 20000436 <old_routine>
    1d2e:	e399                	bnez	a5,1d34 <PeriodElapsedCallback+0x60>
    1d30:	4fe020ef          	jal	ra,422e <enableCompInterrupts>
    1d34:	8b81a783          	lw	a5,-1864(gp) # 20000410 <zero_crosses>
    1d38:	6709                	lui	a4,0x2
    1d3a:	70f70713          	addi	a4,a4,1807 # 270f <zcfoundroutine+0x95>
    1d3e:	00f76563          	bltu	a4,a5,1d48 <PeriodElapsedCallback+0x74>
    1d42:	0785                	addi	a5,a5,1
    1d44:	8af1ac23          	sw	a5,-1864(gp) # 20000410 <zero_crosses>
    1d48:	cd8ff06f          	j	1220 <__riscv_restore_0>

00001d4c <interruptRoutine>:
    1d4c:	cb0ff2ef          	jal	t0,11fc <__riscv_save_0>
    1d50:	8f81a703          	lw	a4,-1800(gp) # 20000450 <average_interval>
    1d54:	07d00793          	li	a5,125
    1d58:	06e7f263          	bgeu	a5,a4,1dbc <interruptRoutine+0x70>
    1d5c:	400017b7          	lui	a5,0x40001
    1d60:	8247d703          	lhu	a4,-2012(a5) # 40000824 <_eusrstack+0x1fffb924>
    1d64:	07c00793          	li	a5,124
    1d68:	00e7ee63          	bltu	a5,a4,1d84 <interruptRoutine+0x38>
    1d6c:	8b21d703          	lhu	a4,-1870(gp) # 2000040a <duty_cycle>
    1d70:	25700793          	li	a5,599
    1d74:	00e7e863          	bltu	a5,a4,1d84 <interruptRoutine+0x38>
    1d78:	8b81a703          	lw	a4,-1864(gp) # 20000410 <zero_crosses>
    1d7c:	1f300793          	li	a5,499
    1d80:	02e7fc63          	bgeu	a5,a4,1db8 <interruptRoutine+0x6c>
    1d84:	400017b7          	lui	a5,0x40001
    1d88:	8247d703          	lhu	a4,-2012(a5) # 40000824 <_eusrstack+0x1fffb924>
    1d8c:	200007b7          	lui	a5,0x20000
    1d90:	3587d783          	lhu	a5,856(a5) # 20000358 <commutation_interval>
    1d94:	8385                	srli	a5,a5,0x1
    1d96:	02f76163          	bltu	a4,a5,1db8 <interruptRoutine+0x6c>
    1d9a:	8d01c783          	lbu	a5,-1840(gp) # 20000428 <stuckcounter>
    1d9e:	0785                	addi	a5,a5,1
    1da0:	0ff7f793          	zext.b	a5,a5
    1da4:	8cf18823          	sb	a5,-1840(gp) # 20000428 <stuckcounter>
    1da8:	06400713          	li	a4,100
    1dac:	00f77863          	bgeu	a4,a5,1dbc <interruptRoutine+0x70>
    1db0:	46a020ef          	jal	ra,421a <maskPhaseInterrupts>
    1db4:	8a01ac23          	sw	zero,-1864(gp) # 20000410 <zero_crosses>
    1db8:	c68ff06f          	j	1220 <__riscv_restore_0>
    1dbc:	400017b7          	lui	a5,0x40001
    1dc0:	8247d703          	lhu	a4,-2012(a5) # 40000824 <_eusrstack+0x1fffb924>
    1dc4:	40011637          	lui	a2,0x40011
    1dc8:	8ae19a23          	sh	a4,-1868(gp) # 2000040c <thiszctime>
    1dcc:	8121c683          	lbu	a3,-2030(gp) # 2000036a <filter_level>
    1dd0:	81018783          	lb	a5,-2032(gp) # 20000368 <rising>
    1dd4:	c3b5                	beqz	a5,1e38 <interruptRoutine+0xec>
    1dd6:	4781                	li	a5,0
    1dd8:	40011637          	lui	a2,0x40011
    1ddc:	a039                	j	1dea <interruptRoutine+0x9e>
    1dde:	80060713          	addi	a4,a2,-2048 # 40010800 <_eusrstack+0x2000b900>
    1de2:	4718                	lw	a4,8(a4)
    1de4:	8b11                	andi	a4,a4,4
    1de6:	fb69                	bnez	a4,1db8 <interruptRoutine+0x6c>
    1de8:	0785                	addi	a5,a5,1
    1dea:	fed7cae3          	blt	a5,a3,1dde <interruptRoutine+0x92>
    1dee:	42c020ef          	jal	ra,421a <maskPhaseInterrupts>
    1df2:	400017b7          	lui	a5,0x40001
    1df6:	82079223          	sh	zero,-2012(a5) # 40000824 <_eusrstack+0x1fffb924>
    1dfa:	8b01d703          	lhu	a4,-1872(gp) # 20000408 <waitTime>
    1dfe:	82818683          	lb	a3,-2008(gp) # 20000380 <fast_accel>
    1e02:	40d75733          	sra	a4,a4,a3
    1e06:	0742                	slli	a4,a4,0x10
    1e08:	8341                	srli	a4,a4,0x10
    1e0a:	8ae19823          	sh	a4,-1872(gp) # 20000408 <waitTime>
    1e0e:	400007b7          	lui	a5,0x40000
    1e12:	42079223          	sh	zero,1060(a5) # 40000424 <_eusrstack+0x1fffb524>
    1e16:	42e79623          	sh	a4,1068(a5)
    1e1a:	40079823          	sh	zero,1040(a5)
    1e1e:	40c7d703          	lhu	a4,1036(a5)
    1e22:	00176713          	ori	a4,a4,1
    1e26:	40e79623          	sh	a4,1036(a5)
    1e2a:	b779                	j	1db8 <interruptRoutine+0x6c>
    1e2c:	80060713          	addi	a4,a2,-2048
    1e30:	4718                	lw	a4,8(a4)
    1e32:	8b11                	andi	a4,a4,4
    1e34:	d351                	beqz	a4,1db8 <interruptRoutine+0x6c>
    1e36:	0785                	addi	a5,a5,1
    1e38:	fed7cae3          	blt	a5,a3,1e2c <interruptRoutine+0xe0>
    1e3c:	bf4d                	j	1dee <interruptRoutine+0xa2>

00001e3e <startMotor>:
    1e3e:	bbeff2ef          	jal	t0,11fc <__riscv_save_0>
    1e42:	8da1c783          	lbu	a5,-1830(gp) # 20000432 <running>
    1e46:	e39d                	bnez	a5,1e6c <startMotor+0x2e>
    1e48:	33a1                	jal	1b90 <commutate>
    1e4a:	6789                	lui	a5,0x2
    1e4c:	20000737          	lui	a4,0x20000
    1e50:	71078793          	addi	a5,a5,1808 # 2710 <zcfoundroutine+0x96>
    1e54:	34f71c23          	sh	a5,856(a4) # 20000358 <commutation_interval>
    1e58:	6705                	lui	a4,0x1
    1e5a:	400017b7          	lui	a5,0x40001
    1e5e:	38870713          	addi	a4,a4,904 # 1388 <computeDshotDMA+0x14c>
    1e62:	82e79223          	sh	a4,-2012(a5) # 40000824 <_eusrstack+0x1fffb924>
    1e66:	4785                	li	a5,1
    1e68:	8cf18d23          	sb	a5,-1830(gp) # 20000432 <running>
    1e6c:	3c2020ef          	jal	ra,422e <enableCompInterrupts>
    1e70:	bb0ff06f          	j	1220 <__riscv_restore_0>

00001e74 <tenKhzRoutine>:
    1e74:	b58ff2ef          	jal	t0,11cc <__riscv_save_12>
    1e78:	90c1d783          	lhu	a5,-1780(gp) # 20000464 <tenkhzcounter>
    1e7c:	6709                	lui	a4,0x2
    1e7e:	71070713          	addi	a4,a4,1808 # 2710 <zcfoundroutine+0x96>
    1e82:	0785                	addi	a5,a5,1
    1e84:	07c2                	slli	a5,a5,0x10
    1e86:	83c1                	srli	a5,a5,0x10
    1e88:	90f19623          	sh	a5,-1780(gp) # 20000464 <tenkhzcounter>
    1e8c:	04f77663          	bgeu	a4,a5,1ed8 <tenKhzRoutine+0x64>
    1e90:	90219403          	lh	s0,-1790(gp) # 2000045a <actual_current>
    1e94:	8522                	mv	a0,s0
    1e96:	34c040ef          	jal	ra,61e2 <__floatsisf>
    1e9a:	8801a583          	lw	a1,-1920(gp) # 200003d8 <SystemCoreClock+0xc>
    1e9e:	3a7030ef          	jal	ra,5a44 <__divsf3>
    1ea2:	9081a583          	lw	a1,-1784(gp) # 20000460 <consumed_current>
    1ea6:	037030ef          	jal	ra,56dc <__addsf3>
    1eaa:	89218783          	lb	a5,-1902(gp) # 200003ea <dshot_extended_telemetry>
    1eae:	90a1a423          	sw	a0,-1784(gp) # 20000460 <consumed_current>
    1eb2:	4689                	li	a3,2
    1eb4:	14d78263          	beq	a5,a3,1ff8 <tenKhzRoutine+0x184>
    1eb8:	460d                	li	a2,3
    1eba:	14c78d63          	beq	a5,a2,2014 <tenKhzRoutine+0x1a0>
    1ebe:	4605                	li	a2,1
    1ec0:	00c79a63          	bne	a5,a2,1ed4 <tenKhzRoutine+0x60>
    1ec4:	8ee1c783          	lbu	a5,-1810(gp) # 20000446 <degrees_celsius>
    1ec8:	88d18923          	sb	a3,-1902(gp) # 200003ea <dshot_extended_telemetry>
    1ecc:	2007e793          	ori	a5,a5,512
    1ed0:	88f19823          	sh	a5,-1904(gp) # 200003e8 <send_extended_dshot>
    1ed4:	90019623          	sh	zero,-1780(gp) # 20000464 <tenkhzcounter>
    1ed8:	8c61c783          	lbu	a5,-1850(gp) # 2000041e <armed>
    1edc:	90f1c703          	lbu	a4,-1777(gp) # 20000467 <cell_count>
    1ee0:	8fd9                	or	a5,a5,a4
    1ee2:	e3b5                	bnez	a5,1f46 <tenKhzRoutine+0xd2>
    1ee4:	8be18783          	lb	a5,-1858(gp) # 20000416 <inputSet>
    1ee8:	cfb9                	beqz	a5,1f46 <tenKhzRoutine+0xd2>
    1eea:	8dc1d783          	lhu	a5,-1828(gp) # 20000434 <adjusted_input>
    1eee:	14079f63          	bnez	a5,204c <tenKhzRoutine+0x1d8>
    1ef2:	9181d783          	lhu	a5,-1768(gp) # 20000470 <armed_timeout_count>
    1ef6:	6689                	lui	a3,0x2
    1ef8:	71068693          	addi	a3,a3,1808 # 2710 <zcfoundroutine+0x96>
    1efc:	0785                	addi	a5,a5,1
    1efe:	07c2                	slli	a5,a5,0x10
    1f00:	83c1                	srli	a5,a5,0x10
    1f02:	90f19c23          	sh	a5,-1768(gp) # 20000470 <armed_timeout_count>
    1f06:	04f6f063          	bgeu	a3,a5,1f46 <tenKhzRoutine+0xd2>
    1f0a:	8c41d683          	lhu	a3,-1852(gp) # 2000041c <zero_input_count>
    1f0e:	47f9                	li	a5,30
    1f10:	12d7fc63          	bgeu	a5,a3,2048 <tenKhzRoutine+0x1d4>
    1f14:	4785                	li	a5,1
    1f16:	8cf18323          	sb	a5,-1850(gp) # 2000041e <armed>
    1f1a:	92d18783          	lb	a5,-1747(gp) # 20000485 <LOW_VOLTAGE_CUTOFF>
    1f1e:	12078263          	beqz	a5,2042 <tenKhzRoutine+0x1ce>
    1f22:	9101d783          	lhu	a5,-1776(gp) # 20000468 <battery_voltage>
    1f26:	17200713          	li	a4,370
    1f2a:	4401                	li	s0,0
    1f2c:	02e7d7b3          	divu	a5,a5,a4
    1f30:	90f187a3          	sb	a5,-1777(gp) # 20000467 <cell_count>
    1f34:	90f18783          	lb	a5,-1777(gp) # 20000467 <cell_count>
    1f38:	0ef44b63          	blt	s0,a5,202e <tenKhzRoutine+0x1ba>
    1f3c:	8bc18783          	lb	a5,-1860(gp) # 20000414 <servoPwm>
    1f40:	e399                	bnez	a5,1f46 <tenKhzRoutine+0xd2>
    1f42:	92018623          	sb	zero,-1748(gp) # 20000484 <RC_CAR_REVERSE>
    1f46:	93018783          	lb	a5,-1744(gp) # 20000488 <TLM_ON_INTERVAL>
    1f4a:	c785                	beqz	a5,1f72 <tenKhzRoutine+0xfe>
    1f4c:	8561c683          	lbu	a3,-1962(gp) # 200003ae <telemetry_interval_ms>
    1f50:	4629                	li	a2,10
    1f52:	02c686b3          	mul	a3,a3,a2
    1f56:	9121d783          	lhu	a5,-1774(gp) # 2000046a <telem_ms_count>
    1f5a:	0785                	addi	a5,a5,1
    1f5c:	07c2                	slli	a5,a5,0x10
    1f5e:	83c1                	srli	a5,a5,0x10
    1f60:	90f19923          	sh	a5,-1774(gp) # 2000046a <telem_ms_count>
    1f64:	00f6d763          	bge	a3,a5,1f72 <tenKhzRoutine+0xfe>
    1f68:	4685                	li	a3,1
    1f6a:	8ed18123          	sb	a3,-1822(gp) # 2000043a <send_telemetry>
    1f6e:	90019923          	sh	zero,-1774(gp) # 2000046a <telem_ms_count>
    1f72:	8d118783          	lb	a5,-1839(gp) # 20000429 <stepper_sine>
    1f76:	24079b63          	bnez	a5,21cc <tenKhzRoutine+0x358>
    1f7a:	93118783          	lb	a5,-1743(gp) # 20000489 <use_sin_start>
    1f7e:	05000713          	li	a4,80
    1f82:	02e787b3          	mul	a5,a5,a4
    1f86:	8c21d703          	lhu	a4,-1854(gp) # 2000041a <input>
    1f8a:	02e78793          	addi	a5,a5,46
    1f8e:	0ce7c263          	blt	a5,a4,2052 <tenKhzRoutine+0x1de>
    1f92:	8fd18783          	lb	a5,-1795(gp) # 20000455 <play_tone_flag>
    1f96:	38079063          	bnez	a5,2316 <tenKhzRoutine+0x4a2>
    1f9a:	85918703          	lb	a4,-1959(gp) # 200003b1 <comp_pwm>
    1f9e:	8da1c783          	lbu	a5,-1830(gp) # 20000432 <running>
    1fa2:	3a071363          	bnez	a4,2348 <tenKhzRoutine+0x4d4>
    1fa6:	8a019923          	sh	zero,-1870(gp) # 2000040a <duty_cycle>
    1faa:	ef81                	bnez	a5,1fc2 <tenKhzRoutine+0x14e>
    1fac:	4705                	li	a4,1
    1fae:	8ce18f23          	sb	a4,-1826(gp) # 20000436 <old_routine>
    1fb2:	8a01ac23          	sw	zero,-1864(gp) # 20000410 <zero_crosses>
    1fb6:	93318783          	lb	a5,-1741(gp) # 2000048b <brake_on_stop>
    1fba:	36078d63          	beqz	a5,2334 <tenKhzRoutine+0x4c0>
    1fbe:	5e8010ef          	jal	ra,35a6 <fullBrake>
    1fc2:	92c18703          	lb	a4,-1748(gp) # 20000484 <RC_CAR_REVERSE>
    1fc6:	8e118783          	lb	a5,-1823(gp) # 20000439 <prop_brake_active>
    1fca:	1a070863          	beqz	a4,217a <tenKhzRoutine+0x306>
    1fce:	1a078663          	beqz	a5,217a <tenKhzRoutine+0x306>
    1fd2:	8c01d583          	lhu	a1,-1856(gp) # 20000418 <newinput>
    1fd6:	3e800513          	li	a0,1000
    1fda:	e48ff0ef          	jal	ra,1622 <getAbsDif>
    1fde:	3e850513          	addi	a0,a0,1000
    1fe2:	0542                	slli	a0,a0,0x10
    1fe4:	8141                	srli	a0,a0,0x10
    1fe6:	8aa19923          	sh	a0,-1870(gp) # 2000040a <duty_cycle>
    1fea:	7d000793          	li	a5,2000
    1fee:	34f51a63          	bne	a0,a5,2342 <tenKhzRoutine+0x4ce>
    1ff2:	5b4010ef          	jal	ra,35a6 <fullBrake>
    1ff6:	a251                	j	217a <tenKhzRoutine+0x306>
    1ff8:	03200793          	li	a5,50
    1ffc:	0ff47413          	zext.b	s0,s0
    2000:	02f45433          	divu	s0,s0,a5
    2004:	60046413          	ori	s0,s0,1536
    2008:	88819823          	sh	s0,-1904(gp) # 200003e8 <send_extended_dshot>
    200c:	478d                	li	a5,3
    200e:	88f18923          	sb	a5,-1902(gp) # 200003ea <dshot_extended_telemetry>
    2012:	b5c9                	j	1ed4 <tenKhzRoutine+0x60>
    2014:	9101d783          	lhu	a5,-1776(gp) # 20000468 <battery_voltage>
    2018:	46e5                	li	a3,25
    201a:	02d7d7b3          	divu	a5,a5,a3
    201e:	0ff7f793          	zext.b	a5,a5
    2022:	4007e793          	ori	a5,a5,1024
    2026:	88f19823          	sh	a5,-1904(gp) # 200003e8 <send_extended_dshot>
    202a:	4785                	li	a5,1
    202c:	b7cd                	j	200e <tenKhzRoutine+0x19a>
    202e:	2bb010ef          	jal	ra,3ae8 <playInputTune>
    2032:	06400513          	li	a0,100
    2036:	e08ff0ef          	jal	ra,163e <delayMillis>
    203a:	0405                	addi	s0,s0,1
    203c:	731020ef          	jal	ra,4f6c <IWDG_ReloadCounter>
    2040:	bdd5                	j	1f34 <tenKhzRoutine+0xc0>
    2042:	2a7010ef          	jal	ra,3ae8 <playInputTune>
    2046:	bddd                	j	1f3c <tenKhzRoutine+0xc8>
    2048:	8a018f23          	sb	zero,-1858(gp) # 20000416 <inputSet>
    204c:	90019c23          	sh	zero,-1768(gp) # 20000470 <armed_timeout_count>
    2050:	bddd                	j	1f46 <tenKhzRoutine+0xd2>
    2052:	8c618783          	lb	a5,-1850(gp) # 2000041e <armed>
    2056:	12078263          	beqz	a5,217a <tenKhzRoutine+0x306>
    205a:	8da1c783          	lbu	a5,-1830(gp) # 20000432 <running>
    205e:	ef91                	bnez	a5,207a <tenKhzRoutine+0x206>
    2060:	4cc010ef          	jal	ra,352c <allOff>
    2064:	8de18783          	lb	a5,-1826(gp) # 20000436 <old_routine>
    2068:	e391                	bnez	a5,206c <tenKhzRoutine+0x1f8>
    206a:	3bd1                	jal	1e3e <startMotor>
    206c:	4785                	li	a5,1
    206e:	8cf18d23          	sb	a5,-1830(gp) # 20000432 <running>
    2072:	82e1d783          	lhu	a5,-2002(gp) # 20000386 <min_startup_duty>
    2076:	8ef19f23          	sh	a5,-1794(gp) # 20000456 <last_duty_cycle>
    207a:	81e1d703          	lhu	a4,-2018(gp) # 20000376 <TIMER1_MAX_ARR>
    207e:	93118783          	lb	a5,-1743(gp) # 20000489 <use_sin_start>
    2082:	8c21d503          	lhu	a0,-1854(gp) # 2000041a <input>
    2086:	8241d683          	lhu	a3,-2012(gp) # 2000037c <minimum_duty_cycle>
    208a:	7ff00613          	li	a2,2047
    208e:	08900593          	li	a1,137
    2092:	e399                	bnez	a5,2098 <tenKhzRoutine+0x224>
    2094:	02f00593          	li	a1,47
    2098:	d68ff0ef          	jal	ra,1600 <map>
    209c:	90c1d783          	lhu	a5,-1780(gp) # 20000464 <tenkhzcounter>
    20a0:	4729                	li	a4,10
    20a2:	01051c13          	slli	s8,a0,0x10
    20a6:	02e7f7b3          	remu	a5,a5,a4
    20aa:	010c5c13          	srli	s8,s8,0x10
    20ae:	8b819923          	sh	s8,-1870(gp) # 2000040a <duty_cycle>
    20b2:	e3dd                	bnez	a5,2158 <tenKhzRoutine+0x2e4>
    20b4:	92018783          	lb	a5,-1760(gp) # 20000478 <use_current_limit>
    20b8:	cfa1                	beqz	a5,2110 <tenKhzRoutine+0x29c>
    20ba:	8da1c783          	lbu	a5,-1830(gp) # 20000432 <running>
    20be:	cba9                	beqz	a5,2110 <tenKhzRoutine+0x29c>
    20c0:	84e1d603          	lhu	a2,-1970(gp) # 200003a6 <CURRENT_LIMIT>
    20c4:	06400793          	li	a5,100
    20c8:	20000537          	lui	a0,0x20000
    20cc:	02f60633          	mul	a2,a2,a5
    20d0:	90219583          	lh	a1,-1790(gp) # 2000045a <actual_current>
    20d4:	2f850513          	addi	a0,a0,760 # 200002f8 <currentPid>
    20d8:	df8ff0ef          	jal	ra,16d0 <doPidCalculations>
    20dc:	87c1a583          	lw	a1,-1924(gp) # 200003d4 <SystemCoreClock+0x8>
    20e0:	165030ef          	jal	ra,5a44 <__divsf3>
    20e4:	04c040ef          	jal	ra,6130 <__fixsfsi>
    20e8:	8361d783          	lhu	a5,-1994(gp) # 2000038e <use_current_limit_adjust>
    20ec:	40a78533          	sub	a0,a5,a0
    20f0:	0542                	slli	a0,a0,0x10
    20f2:	8241d783          	lhu	a5,-2012(gp) # 2000037c <minimum_duty_cycle>
    20f6:	8541                	srai	a0,a0,0x10
    20f8:	82a19b23          	sh	a0,-1994(gp) # 2000038e <use_current_limit_adjust>
    20fc:	00f55463          	bge	a0,a5,2104 <tenKhzRoutine+0x290>
    2100:	82f19b23          	sh	a5,-1994(gp) # 2000038e <use_current_limit_adjust>
    2104:	83619783          	lh	a5,-1994(gp) # 2000038e <use_current_limit_adjust>
    2108:	00fc5463          	bge	s8,a5,2110 <tenKhzRoutine+0x29c>
    210c:	83819b23          	sh	s8,-1994(gp) # 2000038e <use_current_limit_adjust>
    2110:	93218783          	lb	a5,-1742(gp) # 2000048a <stall_protection>
    2114:	c3b1                	beqz	a5,2158 <tenKhzRoutine+0x2e4>
    2116:	8da1c783          	lbu	a5,-1830(gp) # 20000432 <running>
    211a:	cf9d                	beqz	a5,2158 <tenKhzRoutine+0x2e4>
    211c:	8461d603          	lhu	a2,-1978(gp) # 2000039e <stall_protect_target_interval>
    2120:	200007b7          	lui	a5,0x20000
    2124:	3587d583          	lhu	a1,856(a5) # 20000358 <commutation_interval>
    2128:	20000537          	lui	a0,0x20000
    212c:	2d050513          	addi	a0,a0,720 # 200002d0 <stallPid>
    2130:	da0ff0ef          	jal	ra,16d0 <doPidCalculations>
    2134:	87c1a583          	lw	a1,-1924(gp) # 200003d4 <SystemCoreClock+0x8>
    2138:	10d030ef          	jal	ra,5a44 <__divsf3>
    213c:	91c1a583          	lw	a1,-1764(gp) # 20000474 <stall_protection_adjust>
    2140:	59c030ef          	jal	ra,56dc <__addsf3>
    2144:	8841ad03          	lw	s10,-1916(gp) # 200003dc <SystemCoreClock+0x10>
    2148:	8caa                	mv	s9,a0
    214a:	85ea                	mv	a1,s10
    214c:	3df030ef          	jal	ra,5d2a <__gesf2>
    2150:	1aa05463          	blez	a0,22f8 <tenKhzRoutine+0x484>
    2154:	91a1ae23          	sw	s10,-1764(gp) # 20000474 <stall_protection_adjust>
    2158:	92c18783          	lb	a5,-1748(gp) # 20000484 <RC_CAR_REVERSE>
    215c:	e399                	bnez	a5,2162 <tenKhzRoutine+0x2ee>
    215e:	8e0180a3          	sb	zero,-1823(gp) # 20000439 <prop_brake_active>
    2162:	93118783          	lb	a5,-1743(gp) # 20000489 <use_sin_start>
    2166:	05000713          	li	a4,80
    216a:	02e787b3          	mul	a5,a5,a4
    216e:	8c21d703          	lhu	a4,-1854(gp) # 2000041a <input>
    2172:	02e78793          	addi	a5,a5,46
    2176:	e0e7dee3          	bge	a5,a4,1f92 <tenKhzRoutine+0x11e>
    217a:	8e118783          	lb	a5,-1823(gp) # 20000439 <prop_brake_active>
    217e:	8c618b03          	lb	s6,-1850(gp) # 2000041e <armed>
    2182:	2e078063          	beqz	a5,2462 <tenKhzRoutine+0x5ee>
    2186:	280b1563          	bnez	s6,2410 <tenKhzRoutine+0x59c>
    218a:	8b21d703          	lhu	a4,-1870(gp) # 2000040a <duty_cycle>
    218e:	8201d603          	lhu	a2,-2016(gp) # 20000378 <tim1_arr>
    2192:	81e1d683          	lhu	a3,-2018(gp) # 20000376 <TIMER1_MAX_ARR>
    2196:	02c70733          	mul	a4,a4,a2
    219a:	00168793          	addi	a5,a3,1
    219e:	02d74733          	div	a4,a4,a3
    21a2:	8f99                	sub	a5,a5,a4
    21a4:	07c2                	slli	a5,a5,0x10
    21a6:	83c1                	srli	a5,a5,0x10
    21a8:	8cf19523          	sh	a5,-1846(gp) # 20000422 <adjusted_duty_cycle>
    21ac:	8b21d703          	lhu	a4,-1870(gp) # 2000040a <duty_cycle>
    21b0:	8201d683          	lhu	a3,-2016(gp) # 20000378 <tim1_arr>
    21b4:	8ee19f23          	sh	a4,-1794(gp) # 20000456 <last_duty_cycle>
    21b8:	40013737          	lui	a4,0x40013
    21bc:	c2d71623          	sh	a3,-980(a4) # 40012c2c <_eusrstack+0x2000dd2c>
    21c0:	c2f71a23          	sh	a5,-972(a4)
    21c4:	c2f71c23          	sh	a5,-968(a4)
    21c8:	c2f71e23          	sh	a5,-964(a4)
    21cc:	8f01a583          	lw	a1,-1808(gp) # 20000448 <e_com_time>
    21d0:	478d                	li	a5,3
    21d2:	02f5c5b3          	div	a1,a1,a5
    21d6:	8fc18783          	lb	a5,-1796(gp) # 20000454 <desync_check>
    21da:	8eb1ac23          	sw	a1,-1800(gp) # 20000450 <average_interval>
    21de:	cba9                	beqz	a5,2230 <tenKhzRoutine+0x3bc>
    21e0:	8b81a703          	lw	a4,-1864(gp) # 20000410 <zero_crosses>
    21e4:	47a9                	li	a5,10
    21e6:	04e7f563          	bgeu	a5,a4,2230 <tenKhzRoutine+0x3bc>
    21ea:	8f41a503          	lw	a0,-1804(gp) # 2000044c <last_average_interval>
    21ee:	c34ff0ef          	jal	ra,1622 <getAbsDif>
    21f2:	8f81a783          	lw	a5,-1800(gp) # 20000450 <average_interval>
    21f6:	0017d713          	srli	a4,a5,0x1
    21fa:	02a77763          	bgeu	a4,a0,2228 <tenKhzRoutine+0x3b4>
    21fe:	7cf00713          	li	a4,1999
    2202:	02f76363          	bltu	a4,a5,2228 <tenKhzRoutine+0x3b4>
    2206:	9171c703          	lbu	a4,-1769(gp) # 2000046f <desync_happened>
    220a:	8a01ac23          	sw	zero,-1864(gp) # 20000410 <zero_crosses>
    220e:	0705                	addi	a4,a4,1
    2210:	90e18ba3          	sb	a4,-1769(gp) # 2000046f <desync_happened>
    2214:	4685                	li	a3,1
    2216:	8c018d23          	sb	zero,-1830(gp) # 20000432 <running>
    221a:	8cd18f23          	sb	a3,-1826(gp) # 20000436 <old_routine>
    221e:	82e1d703          	lhu	a4,-2002(gp) # 20000386 <min_startup_duty>
    2222:	8305                	srli	a4,a4,0x1
    2224:	8ee19f23          	sh	a4,-1794(gp) # 20000456 <last_duty_cycle>
    2228:	8e018e23          	sb	zero,-1796(gp) # 20000454 <desync_check>
    222c:	8ef1aa23          	sw	a5,-1804(gp) # 2000044c <last_average_interval>
    2230:	8ae1d783          	lhu	a5,-1874(gp) # 20000406 <signaltimeout>
    2234:	6705                	lui	a4,0x1
    2236:	38870713          	addi	a4,a4,904 # 1388 <computeDshotDMA+0x14c>
    223a:	0785                	addi	a5,a5,1
    223c:	07c2                	slli	a5,a5,0x10
    223e:	83c1                	srli	a5,a5,0x10
    2240:	8af19723          	sh	a5,-1874(gp) # 20000406 <signaltimeout>
    2244:	0af77863          	bgeu	a4,a5,22f4 <tenKhzRoutine+0x480>
    2248:	8c618783          	lb	a5,-1850(gp) # 2000041e <armed>
    224c:	c7b9                	beqz	a5,229a <tenKhzRoutine+0x426>
    224e:	2de010ef          	jal	ra,352c <allOff>
    2252:	8c019123          	sh	zero,-1854(gp) # 2000041a <input>
    2256:	8a018f23          	sb	zero,-1858(gp) # 20000416 <inputSet>
    225a:	8c019223          	sh	zero,-1852(gp) # 2000041c <zero_input_count>
    225e:	8c018323          	sb	zero,-1850(gp) # 2000041e <armed>
    2262:	400137b7          	lui	a5,0x40013
    2266:	c2079a23          	sh	zero,-972(a5) # 40012c34 <_eusrstack+0x2000dd34>
    226a:	c2079c23          	sh	zero,-968(a5)
    226e:	c2079e23          	sh	zero,-964(a5)
    2272:	400007b7          	lui	a5,0x40000
    2276:	02079423          	sh	zero,40(a5) # 40000028 <_eusrstack+0x1fffb128>
    227a:	02079223          	sh	zero,36(a5)
    227e:	10000613          	li	a2,256
    2282:	4581                	li	a1,0
    2284:	af418513          	addi	a0,gp,-1292 # 2000064c <dma_buffer>
    2288:	fa5fe0ef          	jal	ra,122c <memset>
    228c:	beef07b7          	lui	a5,0xbeef0
    2290:	e000e737          	lui	a4,0xe000e
    2294:	08078793          	addi	a5,a5,128 # beef0080 <_eusrstack+0x9eeeb180>
    2298:	c73c                	sw	a5,72(a4)
    229a:	8ae1d703          	lhu	a4,-1874(gp) # 20000406 <signaltimeout>
    229e:	6799                	lui	a5,0x6
    22a0:	1a878793          	addi	a5,a5,424 # 61a8 <__fixunssfsi+0x18>
    22a4:	04e7f863          	bgeu	a5,a4,22f4 <tenKhzRoutine+0x480>
    22a8:	284010ef          	jal	ra,352c <allOff>
    22ac:	8c019123          	sh	zero,-1854(gp) # 2000041a <input>
    22b0:	8a018f23          	sb	zero,-1858(gp) # 20000416 <inputSet>
    22b4:	8c019223          	sh	zero,-1852(gp) # 2000041c <zero_input_count>
    22b8:	8c018323          	sb	zero,-1850(gp) # 2000041e <armed>
    22bc:	400137b7          	lui	a5,0x40013
    22c0:	c2079a23          	sh	zero,-972(a5) # 40012c34 <_eusrstack+0x2000dd34>
    22c4:	c2079c23          	sh	zero,-968(a5)
    22c8:	c2079e23          	sh	zero,-964(a5)
    22cc:	400007b7          	lui	a5,0x40000
    22d0:	02079423          	sh	zero,40(a5) # 40000028 <_eusrstack+0x1fffb128>
    22d4:	02079223          	sh	zero,36(a5)
    22d8:	10000613          	li	a2,256
    22dc:	4581                	li	a1,0
    22de:	af418513          	addi	a0,gp,-1292 # 2000064c <dma_buffer>
    22e2:	f4bfe0ef          	jal	ra,122c <memset>
    22e6:	beef07b7          	lui	a5,0xbeef0
    22ea:	e000e737          	lui	a4,0xe000e
    22ee:	08078793          	addi	a5,a5,128 # beef0080 <_eusrstack+0x9eeeb180>
    22f2:	c73c                	sw	a5,72(a4)
    22f4:	f15fe06f          	j	1208 <__riscv_restore_12>
    22f8:	00000593          	li	a1,0
    22fc:	8566                	mv	a0,s9
    22fe:	2c3030ef          	jal	ra,5dc0 <__lesf2>
    2302:	00a05563          	blez	a0,230c <tenKhzRoutine+0x498>
    2306:	9191ae23          	sw	s9,-1764(gp) # 20000474 <stall_protection_adjust>
    230a:	b5b9                	j	2158 <tenKhzRoutine+0x2e4>
    230c:	00000793          	li	a5,0
    2310:	90f1ae23          	sw	a5,-1764(gp) # 20000474 <stall_protection_adjust>
    2314:	b591                	j	2158 <tenKhzRoutine+0x2e4>
    2316:	4705                	li	a4,1
    2318:	00e79463          	bne	a5,a4,2320 <tenKhzRoutine+0x4ac>
    231c:	047010ef          	jal	ra,3b62 <playDefaultTone>
    2320:	8fd18703          	lb	a4,-1795(gp) # 20000455 <play_tone_flag>
    2324:	4789                	li	a5,2
    2326:	00f71463          	bne	a4,a5,232e <tenKhzRoutine+0x4ba>
    232a:	08f010ef          	jal	ra,3bb8 <playChangedTone>
    232e:	8e018ea3          	sb	zero,-1795(gp) # 20000455 <play_tone_flag>
    2332:	b1a5                	j	1f9a <tenKhzRoutine+0x126>
    2334:	8e118783          	lb	a5,-1823(gp) # 20000439 <prop_brake_active>
    2338:	c80795e3          	bnez	a5,1fc2 <tenKhzRoutine+0x14e>
    233c:	1f0010ef          	jal	ra,352c <allOff>
    2340:	b149                	j	1fc2 <tenKhzRoutine+0x14e>
    2342:	727000ef          	jal	ra,3268 <proportionalBrake>
    2346:	bd15                	j	217a <tenKhzRoutine+0x306>
    2348:	ef8d                	bnez	a5,2382 <tenKhzRoutine+0x50e>
    234a:	4c05                	li	s8,1
    234c:	8d818f23          	sb	s8,-1826(gp) # 20000436 <old_routine>
    2350:	8a01ac23          	sw	zero,-1864(gp) # 20000410 <zero_crosses>
    2354:	8c018423          	sb	zero,-1848(gp) # 20000420 <bad_count>
    2358:	93318783          	lb	a5,-1741(gp) # 2000048b <brake_on_stop>
    235c:	8a019923          	sh	zero,-1870(gp) # 2000040a <duty_cycle>
    2360:	c3dd                	beqz	a5,2406 <tenKhzRoutine+0x592>
    2362:	93118783          	lb	a5,-1743(gp) # 20000489 <use_sin_start>
    2366:	ef91                	bnez	a5,2382 <tenKhzRoutine+0x50e>
    2368:	84b18783          	lb	a5,-1973(gp) # 200003a3 <drag_brake_strength>
    236c:	81e1d703          	lhu	a4,-2018(gp) # 20000376 <TIMER1_MAX_ARR>
    2370:	0786                	slli	a5,a5,0x1
    2372:	1735                	addi	a4,a4,-19 # e000dfed <_eusrstack+0xc00090ed>
    2374:	97ba                	add	a5,a5,a4
    2376:	8af19923          	sh	a5,-1870(gp) # 2000040a <duty_cycle>
    237a:	6ef000ef          	jal	ra,3268 <proportionalBrake>
    237e:	8f8180a3          	sb	s8,-1823(gp) # 20000439 <prop_brake_active>
    2382:	200007b7          	lui	a5,0x20000
    2386:	35a78783          	lb	a5,858(a5) # 2000035a <step>
    238a:	03c00713          	li	a4,60
    238e:	16700693          	li	a3,359
    2392:	17fd                	addi	a5,a5,-1
    2394:	02e787b3          	mul	a5,a5,a4
    2398:	8441d703          	lhu	a4,-1980(gp) # 2000039c <enter_sine_angle>
    239c:	97ba                	add	a5,a5,a4
    239e:	01079713          	slli	a4,a5,0x10
    23a2:	07c2                	slli	a5,a5,0x10
    23a4:	87c1                	srai	a5,a5,0x10
    23a6:	8341                	srli	a4,a4,0x10
    23a8:	00f6d663          	bge	a3,a5,23b4 <tenKhzRoutine+0x540>
    23ac:	e9870793          	addi	a5,a4,-360
    23b0:	07c2                	slli	a5,a5,0x10
    23b2:	87c1                	srai	a5,a5,0x10
    23b4:	8cf19b23          	sh	a5,-1834(gp) # 2000042e <phase_A_position>
    23b8:	07c2                	slli	a5,a5,0x10
    23ba:	83c1                	srli	a5,a5,0x10
    23bc:	07778713          	addi	a4,a5,119
    23c0:	0742                	slli	a4,a4,0x10
    23c2:	8741                	srai	a4,a4,0x10
    23c4:	16700693          	li	a3,359
    23c8:	00e6d663          	bge	a3,a4,23d4 <tenKhzRoutine+0x560>
    23cc:	f0f78713          	addi	a4,a5,-241
    23d0:	0742                	slli	a4,a4,0x10
    23d2:	8741                	srai	a4,a4,0x10
    23d4:	8ce19a23          	sh	a4,-1836(gp) # 2000042c <phase_B_position>
    23d8:	0ef78713          	addi	a4,a5,239
    23dc:	0742                	slli	a4,a4,0x10
    23de:	8741                	srai	a4,a4,0x10
    23e0:	16700693          	li	a3,359
    23e4:	00e6d763          	bge	a3,a4,23f2 <tenKhzRoutine+0x57e>
    23e8:	f8778793          	addi	a5,a5,-121
    23ec:	01079713          	slli	a4,a5,0x10
    23f0:	8741                	srai	a4,a4,0x10
    23f2:	8ce19923          	sh	a4,-1838(gp) # 2000042a <phase_C_position>
    23f6:	93118783          	lb	a5,-1743(gp) # 20000489 <use_sin_start>
    23fa:	4705                	li	a4,1
    23fc:	d6e79fe3          	bne	a5,a4,217a <tenKhzRoutine+0x306>
    2400:	8cf188a3          	sb	a5,-1839(gp) # 20000429 <stepper_sine>
    2404:	bb9d                	j	217a <tenKhzRoutine+0x306>
    2406:	126010ef          	jal	ra,352c <allOff>
    240a:	8a019923          	sh	zero,-1870(gp) # 2000040a <duty_cycle>
    240e:	bf95                	j	2382 <tenKhzRoutine+0x50e>
    2410:	8da1c783          	lbu	a5,-1830(gp) # 20000432 <running>
    2414:	d6078be3          	beqz	a5,218a <tenKhzRoutine+0x316>
    2418:	8c21d703          	lhu	a4,-1854(gp) # 2000041a <input>
    241c:	02f00793          	li	a5,47
    2420:	d6e7f5e3          	bgeu	a5,a4,218a <tenKhzRoutine+0x316>
    2424:	85818783          	lb	a5,-1960(gp) # 200003b0 <VARIABLE_PWM>
    2428:	c38d                	beqz	a5,244a <tenKhzRoutine+0x5d6>
    242a:	81e1d703          	lhu	a4,-2018(gp) # 20000376 <TIMER1_MAX_ARR>
    242e:	200007b7          	lui	a5,0x20000
    2432:	3587d503          	lhu	a0,856(a5) # 20000358 <commutation_interval>
    2436:	00175693          	srli	a3,a4,0x1
    243a:	0c800613          	li	a2,200
    243e:	06000593          	li	a1,96
    2442:	9beff0ef          	jal	ra,1600 <map>
    2446:	82a19023          	sh	a0,-2016(gp) # 20000378 <tim1_arr>
    244a:	8201d703          	lhu	a4,-2016(gp) # 20000378 <tim1_arr>
    244e:	8b21d783          	lhu	a5,-1870(gp) # 2000040a <duty_cycle>
    2452:	02e787b3          	mul	a5,a5,a4
    2456:	81e1d703          	lhu	a4,-2018(gp) # 20000376 <TIMER1_MAX_ARR>
    245a:	02e7c7b3          	div	a5,a5,a4
    245e:	0785                	addi	a5,a5,1
    2460:	b391                	j	21a4 <tenKhzRoutine+0x330>
    2462:	93218683          	lb	a3,-1742(gp) # 2000048a <stall_protection>
    2466:	47d1                	li	a5,20
    2468:	8b21d703          	lhu	a4,-1870(gp) # 2000040a <duty_cycle>
    246c:	40d7d7b3          	sra	a5,a5,a3
    2470:	8b81a683          	lw	a3,-1864(gp) # 20000410 <zero_crosses>
    2474:	02f6f063          	bgeu	a3,a5,2494 <tenKhzRoutine+0x620>
    2478:	82e1d783          	lhu	a5,-2002(gp) # 20000386 <min_startup_duty>
    247c:	00f77463          	bgeu	a4,a5,2484 <tenKhzRoutine+0x610>
    2480:	8af19923          	sh	a5,-1870(gp) # 2000040a <duty_cycle>
    2484:	8261d783          	lhu	a5,-2010(gp) # 2000037e <startup_max_duty_cycle>
    2488:	8b21d703          	lhu	a4,-1870(gp) # 2000040a <duty_cycle>
    248c:	00e7f463          	bgeu	a5,a4,2494 <tenKhzRoutine+0x620>
    2490:	8af19923          	sh	a5,-1870(gp) # 2000040a <duty_cycle>
    2494:	81c1d783          	lhu	a5,-2020(gp) # 20000374 <duty_cycle_maximum>
    2498:	8b21d703          	lhu	a4,-1870(gp) # 2000040a <duty_cycle>
    249c:	00e7f463          	bgeu	a5,a4,24a4 <tenKhzRoutine+0x630>
    24a0:	8af19923          	sh	a5,-1870(gp) # 2000040a <duty_cycle>
    24a4:	92018783          	lb	a5,-1760(gp) # 20000478 <use_current_limit>
    24a8:	cb89                	beqz	a5,24ba <tenKhzRoutine+0x646>
    24aa:	83619783          	lh	a5,-1994(gp) # 2000038e <use_current_limit_adjust>
    24ae:	8b21d703          	lhu	a4,-1870(gp) # 2000040a <duty_cycle>
    24b2:	00e7d463          	bge	a5,a4,24ba <tenKhzRoutine+0x646>
    24b6:	8af19923          	sh	a5,-1870(gp) # 2000040a <duty_cycle>
    24ba:	91c1ab83          	lw	s7,-1764(gp) # 20000474 <stall_protection_adjust>
    24be:	00000593          	li	a1,0
    24c2:	855e                	mv	a0,s7
    24c4:	067030ef          	jal	ra,5d2a <__gesf2>
    24c8:	00a05a63          	blez	a0,24dc <tenKhzRoutine+0x668>
    24cc:	855e                	mv	a0,s7
    24ce:	4c3030ef          	jal	ra,6190 <__fixunssfsi>
    24d2:	8b21d783          	lhu	a5,-1870(gp) # 2000040a <duty_cycle>
    24d6:	953e                	add	a0,a0,a5
    24d8:	8aa19923          	sh	a0,-1870(gp) # 2000040a <duty_cycle>
    24dc:	83218783          	lb	a5,-1998(gp) # 2000038a <maximum_throttle_change_ramp>
    24e0:	8da1c683          	lbu	a3,-1830(gp) # 20000432 <running>
    24e4:	c3a9                	beqz	a5,2526 <tenKhzRoutine+0x6b2>
    24e6:	8f81a603          	lw	a2,-1800(gp) # 20000450 <average_interval>
    24ea:	1f400713          	li	a4,500
    24ee:	47f9                	li	a5,30
    24f0:	00c77363          	bgeu	a4,a2,24f6 <tenKhzRoutine+0x682>
    24f4:	47a9                	li	a5,10
    24f6:	8b21d583          	lhu	a1,-1870(gp) # 2000040a <duty_cycle>
    24fa:	82f184a3          	sb	a5,-2007(gp) # 20000381 <max_duty_cycle_change>
    24fe:	8fe1d703          	lhu	a4,-1794(gp) # 20000456 <last_duty_cycle>
    2502:	40e58833          	sub	a6,a1,a4
    2506:	0507d063          	bge	a5,a6,2546 <tenKhzRoutine+0x6d2>
    250a:	97ba                	add	a5,a5,a4
    250c:	8af19923          	sh	a5,-1870(gp) # 2000040a <duty_cycle>
    2510:	200007b7          	lui	a5,0x20000
    2514:	3587d703          	lhu	a4,856(a5) # 20000358 <commutation_interval>
    2518:	1f400793          	li	a5,500
    251c:	02e7fc63          	bgeu	a5,a4,2554 <tenKhzRoutine+0x6e0>
    2520:	4785                	li	a5,1
    2522:	82f18423          	sb	a5,-2008(gp) # 20000380 <fast_accel>
    2526:	000b0963          	beqz	s6,2538 <tenKhzRoutine+0x6c4>
    252a:	c699                	beqz	a3,2538 <tenKhzRoutine+0x6c4>
    252c:	8c21d703          	lhu	a4,-1854(gp) # 2000041a <input>
    2530:	02f00793          	li	a5,47
    2534:	eee7e8e3          	bltu	a5,a4,2424 <tenKhzRoutine+0x5b0>
    2538:	8da1c783          	lbu	a5,-1830(gp) # 20000432 <running>
    253c:	02d00713          	li	a4,45
    2540:	02e787b3          	mul	a5,a5,a4
    2544:	b185                	j	21a4 <tenKhzRoutine+0x330>
    2546:	40b705b3          	sub	a1,a4,a1
    254a:	00b7d563          	bge	a5,a1,2554 <tenKhzRoutine+0x6e0>
    254e:	8f1d                	sub	a4,a4,a5
    2550:	8ae19923          	sh	a4,-1870(gp) # 2000040a <duty_cycle>
    2554:	82018423          	sb	zero,-2008(gp) # 20000380 <fast_accel>
    2558:	b7f9                	j	2526 <tenKhzRoutine+0x6b2>

0000255a <advanceincrement>:
    255a:	80c18703          	lb	a4,-2036(gp) # 20000364 <forward>
    255e:	8d61d783          	lhu	a5,-1834(gp) # 2000042e <phase_A_position>
    2562:	ef71                	bnez	a4,263e <advanceincrement+0xe4>
    2564:	0785                	addi	a5,a5,1
    2566:	07c2                	slli	a5,a5,0x10
    2568:	87c1                	srai	a5,a5,0x10
    256a:	16700713          	li	a4,359
    256e:	00f75363          	bge	a4,a5,2574 <advanceincrement+0x1a>
    2572:	4781                	li	a5,0
    2574:	8cf19b23          	sh	a5,-1834(gp) # 2000042e <phase_A_position>
    2578:	8d41d783          	lhu	a5,-1836(gp) # 2000042c <phase_B_position>
    257c:	16700713          	li	a4,359
    2580:	0785                	addi	a5,a5,1
    2582:	07c2                	slli	a5,a5,0x10
    2584:	87c1                	srai	a5,a5,0x10
    2586:	00f75363          	bge	a4,a5,258c <advanceincrement+0x32>
    258a:	4781                	li	a5,0
    258c:	8cf19a23          	sh	a5,-1836(gp) # 2000042c <phase_B_position>
    2590:	8d21d783          	lhu	a5,-1838(gp) # 2000042a <phase_C_position>
    2594:	16700713          	li	a4,359
    2598:	0785                	addi	a5,a5,1
    259a:	07c2                	slli	a5,a5,0x10
    259c:	87c1                	srai	a5,a5,0x10
    259e:	00f74563          	blt	a4,a5,25a8 <advanceincrement+0x4e>
    25a2:	8cf19923          	sh	a5,-1838(gp) # 2000042a <phase_C_position>
    25a6:	a019                	j	25ac <advanceincrement+0x52>
    25a8:	8c019923          	sh	zero,-1838(gp) # 2000042a <phase_C_position>
    25ac:	80a1de03          	lhu	t3,-2038(gp) # 20000362 <gate_drive_offset>
    25b0:	81e1d303          	lhu	t1,-2018(gp) # 20000376 <TIMER1_MAX_ARR>
    25b4:	84c1c803          	lbu	a6,-1972(gp) # 200003a4 <sine_mode_power>
    25b8:	8d619783          	lh	a5,-1834(gp) # 2000042e <phase_A_position>
    25bc:	20000737          	lui	a4,0x20000
    25c0:	00070713          	mv	a4,a4
    25c4:	0786                	slli	a5,a5,0x1
    25c6:	97ba                	add	a5,a5,a4
    25c8:	00079783          	lh	a5,0(a5)
    25cc:	7d000893          	li	a7,2000
    25d0:	4529                	li	a0,10
    25d2:	97f2                	add	a5,a5,t3
    25d4:	026787b3          	mul	a5,a5,t1
    25d8:	40013637          	lui	a2,0x40013
    25dc:	0317c7b3          	div	a5,a5,a7
    25e0:	030787b3          	mul	a5,a5,a6
    25e4:	02a7c7b3          	div	a5,a5,a0
    25e8:	07c2                	slli	a5,a5,0x10
    25ea:	83c1                	srli	a5,a5,0x10
    25ec:	c2f61a23          	sh	a5,-972(a2) # 40012c34 <_eusrstack+0x2000dd34>
    25f0:	8d419783          	lh	a5,-1836(gp) # 2000042c <phase_B_position>
    25f4:	0786                	slli	a5,a5,0x1
    25f6:	97ba                	add	a5,a5,a4
    25f8:	00079783          	lh	a5,0(a5)
    25fc:	97f2                	add	a5,a5,t3
    25fe:	026787b3          	mul	a5,a5,t1
    2602:	0317c7b3          	div	a5,a5,a7
    2606:	030787b3          	mul	a5,a5,a6
    260a:	02a7c7b3          	div	a5,a5,a0
    260e:	07c2                	slli	a5,a5,0x10
    2610:	83c1                	srli	a5,a5,0x10
    2612:	c2f61c23          	sh	a5,-968(a2)
    2616:	8d219783          	lh	a5,-1838(gp) # 2000042a <phase_C_position>
    261a:	0786                	slli	a5,a5,0x1
    261c:	973e                	add	a4,a4,a5
    261e:	00071783          	lh	a5,0(a4) # 20000000 <pwmSin>
    2622:	97f2                	add	a5,a5,t3
    2624:	026787b3          	mul	a5,a5,t1
    2628:	0317c7b3          	div	a5,a5,a7
    262c:	030787b3          	mul	a5,a5,a6
    2630:	02a7c7b3          	div	a5,a5,a0
    2634:	07c2                	slli	a5,a5,0x10
    2636:	83c1                	srli	a5,a5,0x10
    2638:	c2f61e23          	sh	a5,-964(a2)
    263c:	8082                	ret
    263e:	17fd                	addi	a5,a5,-1
    2640:	07c2                	slli	a5,a5,0x10
    2642:	87c1                	srai	a5,a5,0x10
    2644:	0007d463          	bgez	a5,264c <advanceincrement+0xf2>
    2648:	16700793          	li	a5,359
    264c:	8cf19b23          	sh	a5,-1834(gp) # 2000042e <phase_A_position>
    2650:	8d41d783          	lhu	a5,-1836(gp) # 2000042c <phase_B_position>
    2654:	17fd                	addi	a5,a5,-1
    2656:	07c2                	slli	a5,a5,0x10
    2658:	87c1                	srai	a5,a5,0x10
    265a:	0007d463          	bgez	a5,2662 <advanceincrement+0x108>
    265e:	16700793          	li	a5,359
    2662:	8cf19a23          	sh	a5,-1836(gp) # 2000042c <phase_B_position>
    2666:	8d21d783          	lhu	a5,-1838(gp) # 2000042a <phase_C_position>
    266a:	17fd                	addi	a5,a5,-1
    266c:	07c2                	slli	a5,a5,0x10
    266e:	87c1                	srai	a5,a5,0x10
    2670:	f207d9e3          	bgez	a5,25a2 <advanceincrement+0x48>
    2674:	16700793          	li	a5,359
    2678:	b72d                	j	25a2 <advanceincrement+0x48>

0000267a <zcfoundroutine>:
    267a:	b83fe2ef          	jal	t0,11fc <__riscv_save_0>
    267e:	400016b7          	lui	a3,0x40001
    2682:	8246d703          	lhu	a4,-2012(a3) # 40000824 <_eusrstack+0x1fffb924>
    2686:	20000437          	lui	s0,0x20000
    268a:	0742                	slli	a4,a4,0x10
    268c:	8341                	srli	a4,a4,0x10
    268e:	8ae19a23          	sh	a4,-1868(gp) # 2000040c <thiszctime>
    2692:	82069223          	sh	zero,-2012(a3)
    2696:	35845783          	lhu	a5,856(s0) # 20000358 <commutation_interval>
    269a:	460d                	li	a2,3
    269c:	80068693          	addi	a3,a3,-2048
    26a0:	02c787b3          	mul	a5,a5,a2
    26a4:	8111c603          	lbu	a2,-2031(gp) # 20000369 <advancedivisor>
    26a8:	97ba                	add	a5,a5,a4
    26aa:	8789                	srai	a5,a5,0x2
    26ac:	01079713          	slli	a4,a5,0x10
    26b0:	02c7c7b3          	div	a5,a5,a2
    26b4:	8341                	srli	a4,a4,0x10
    26b6:	34e41c23          	sh	a4,856(s0)
    26ba:	8305                	srli	a4,a4,0x1
    26bc:	07c2                	slli	a5,a5,0x10
    26be:	83c1                	srli	a5,a5,0x10
    26c0:	8cf19c23          	sh	a5,-1832(gp) # 20000430 <advance>
    26c4:	40f707b3          	sub	a5,a4,a5
    26c8:	07c2                	slli	a5,a5,0x10
    26ca:	83c1                	srli	a5,a5,0x10
    26cc:	8af19823          	sh	a5,-1872(gp) # 20000408 <waitTime>
    26d0:	32da                	lhu	a4,36(a3)
    26d2:	fef76fe3          	bltu	a4,a5,26d0 <zcfoundroutine+0x56>
    26d6:	cbaff0ef          	jal	ra,1b90 <commutate>
    26da:	8a018b23          	sb	zero,-1866(gp) # 2000040e <bemfcounter>
    26de:	8c018423          	sb	zero,-1848(gp) # 20000420 <bad_count>
    26e2:	8b81a783          	lw	a5,-1864(gp) # 20000410 <zero_crosses>
    26e6:	92c1c683          	lbu	a3,-1748(gp) # 20000484 <RC_CAR_REVERSE>
    26ea:	0785                	addi	a5,a5,1
    26ec:	8af1ac23          	sw	a5,-1864(gp) # 20000410 <zero_crosses>
    26f0:	9321c703          	lbu	a4,-1742(gp) # 2000048a <stall_protection>
    26f4:	8f55                	or	a4,a4,a3
    26f6:	c305                	beqz	a4,2716 <zcfoundroutine+0x9c>
    26f8:	474d                	li	a4,19
    26fa:	00f77c63          	bgeu	a4,a5,2712 <zcfoundroutine+0x98>
    26fe:	35845703          	lhu	a4,856(s0)
    2702:	7d000793          	li	a5,2000
    2706:	00e7e663          	bltu	a5,a4,2712 <zcfoundroutine+0x98>
    270a:	8c018f23          	sb	zero,-1826(gp) # 20000436 <old_routine>
    270e:	321010ef          	jal	ra,422e <enableCompInterrupts>
    2712:	b0ffe06f          	j	1220 <__riscv_restore_0>
    2716:	4779                	li	a4,30
    2718:	fef77de3          	bgeu	a4,a5,2712 <zcfoundroutine+0x98>
    271c:	b7fd                	j	270a <zcfoundroutine+0x90>

0000271e <main>:
    271e:	aaffe2ef          	jal	t0,11cc <__riscv_save_12>
    2722:	1141                	addi	sp,sp,-16
    2724:	40013437          	lui	s0,0x40013
    2728:	11e020ef          	jal	ra,4846 <SystemCoreClockUpdate>
    272c:	447010ef          	jal	ra,4372 <initAfterJump>
    2730:	03e020ef          	jal	ra,476e <initCorePeripherals>
    2734:	c0040513          	addi	a0,s0,-1024 # 40012c00 <_eusrstack+0x2000dd00>
    2738:	4605                	li	a2,1
    273a:	4581                	li	a1,0
    273c:	557020ef          	jal	ra,5492 <TIM_CCxCmd>
    2740:	c0040513          	addi	a0,s0,-1024
    2744:	4605                	li	a2,1
    2746:	4591                	li	a1,4
    2748:	54b020ef          	jal	ra,5492 <TIM_CCxCmd>
    274c:	c0040513          	addi	a0,s0,-1024
    2750:	4605                	li	a2,1
    2752:	45a1                	li	a1,8
    2754:	53f020ef          	jal	ra,5492 <TIM_CCxCmd>
    2758:	c0040513          	addi	a0,s0,-1024
    275c:	4611                	li	a2,4
    275e:	4581                	li	a1,0
    2760:	553020ef          	jal	ra,54b2 <TIM_CCxNCmd>
    2764:	c0040513          	addi	a0,s0,-1024
    2768:	4611                	li	a2,4
    276a:	4591                	li	a1,4
    276c:	547020ef          	jal	ra,54b2 <TIM_CCxNCmd>
    2770:	c0040513          	addi	a0,s0,-1024
    2774:	4611                	li	a2,4
    2776:	45a1                	li	a1,8
    2778:	53b020ef          	jal	ra,54b2 <TIM_CCxNCmd>
    277c:	4605                	li	a2,1
    277e:	c0040513          	addi	a0,s0,-1024
    2782:	45b1                	li	a1,12
    2784:	50f020ef          	jal	ra,5492 <TIM_CCxCmd>
    2788:	06400793          	li	a5,100
    278c:	c4f41023          	sh	a5,-960(s0)
    2790:	c0040413          	addi	s0,s0,-1024
    2794:	8522                	mv	a0,s0
    2796:	4585                	li	a1,1
    2798:	409020ef          	jal	ra,53a0 <TIM_Cmd>
    279c:	8522                	mv	a0,s0
    279e:	4585                	li	a1,1
    27a0:	419020ef          	jal	ra,53b8 <TIM_CtrlPWMOutputs>
    27a4:	8522                	mv	a0,s0
    27a6:	4585                	li	a1,1
    27a8:	439020ef          	jal	ra,53e0 <TIM_GenerateEvent>
    27ac:	4605                	li	a2,1
    27ae:	45a1                	li	a1,8
    27b0:	40000537          	lui	a0,0x40000
    27b4:	4df020ef          	jal	ra,5492 <TIM_CCxCmd>
    27b8:	4585                	li	a1,1
    27ba:	40000537          	lui	a0,0x40000
    27be:	3e3020ef          	jal	ra,53a0 <TIM_Cmd>
    27c2:	40000437          	lui	s0,0x40000
    27c6:	40040513          	addi	a0,s0,1024 # 40000400 <_eusrstack+0x1fffb500>
    27ca:	4585                	li	a1,1
    27cc:	3d5020ef          	jal	ra,53a0 <TIM_Cmd>
    27d0:	40040513          	addi	a0,s0,1024
    27d4:	4585                	li	a1,1
    27d6:	40b020ef          	jal	ra,53e0 <TIM_GenerateEvent>
    27da:	40c45783          	lhu	a5,1036(s0)
    27de:	4585                	li	a1,1
    27e0:	07c2                	slli	a5,a5,0x10
    27e2:	83c1                	srli	a5,a5,0x10
    27e4:	9bf9                	andi	a5,a5,-2
    27e6:	07c2                	slli	a5,a5,0x10
    27e8:	83c1                	srli	a5,a5,0x10
    27ea:	40f41623          	sh	a5,1036(s0)
    27ee:	40001437          	lui	s0,0x40001
    27f2:	80040513          	addi	a0,s0,-2048 # 40000800 <_eusrstack+0x1fffb900>
    27f6:	3ab020ef          	jal	ra,53a0 <TIM_Cmd>
    27fa:	4585                	li	a1,1
    27fc:	80040513          	addi	a0,s0,-2048
    2800:	3e1020ef          	jal	ra,53e0 <TIM_GenerateEvent>
    2804:	580010ef          	jal	ra,3d84 <ADCInit>
    2808:	496010ef          	jal	ra,3c9e <enableADC_DMA>
    280c:	512010ef          	jal	ra,3d1e <activateADC>
    2810:	f1dfe0ef          	jal	ra,172c <loadEEpromSettings>
    2814:	6785                	lui	a5,0x1
    2816:	a3818693          	addi	a3,gp,-1480 # 20000590 <eepromBuffer>
    281a:	32a8                	lbu	a0,3(a3)
    281c:	0c07c583          	lbu	a1,192(a5) # 10c0 <firmware_info>
    2820:	0c078693          	addi	a3,a5,192
    2824:	a3818613          	addi	a2,gp,-1480 # 20000590 <eepromBuffer>
    2828:	00b51763          	bne	a0,a1,2836 <main+0x118>
    282c:	0016c803          	lbu	a6,1(a3)
    2830:	2248                	lbu	a0,4(a2)
    2832:	02a80263          	beq	a6,a0,2856 <main+0x138>
    2836:	b22c                	sb	a1,3(a2)
    2838:	328c                	lbu	a1,1(a3)
    283a:	0c078793          	addi	a5,a5,192
    283e:	a3818713          	addi	a4,gp,-1480 # 20000590 <eepromBuffer>
    2842:	a24c                	sb	a1,4(a2)
    2844:	06b1                	addi	a3,a3,12
    2846:	23b0                	lbu	a2,2(a5)
    2848:	0785                	addi	a5,a5,1
    284a:	0705                	addi	a4,a4,1
    284c:	a350                	sb	a2,4(a4)
    284e:	fef69ce3          	bne	a3,a5,2846 <main+0x128>
    2852:	a92ff0ef          	jal	ra,1ae4 <saveEEpromSettings>
    2856:	93118783          	lb	a5,-1743(gp) # 20000489 <use_sin_start>
    285a:	c789                	beqz	a5,2864 <main+0x146>
    285c:	82c1d703          	lhu	a4,-2004(gp) # 20000384 <sin_mode_min_s_d>
    2860:	82e19723          	sh	a4,-2002(gp) # 20000386 <min_startup_duty>
    2864:	93518783          	lb	a5,-1739(gp) # 2000048d <dir_reversed>
    2868:	17fd                	addi	a5,a5,-1
    286a:	00f037b3          	snez	a5,a5
    286e:	80f18623          	sb	a5,-2036(gp) # 20000364 <forward>
    2872:	81e1d703          	lhu	a4,-2018(gp) # 20000376 <TIMER1_MAX_ARR>
    2876:	8261d783          	lhu	a5,-2010(gp) # 2000037e <startup_max_duty_cycle>
    287a:	7d000693          	li	a3,2000
    287e:	02e787b3          	mul	a5,a5,a4
    2882:	8491c583          	lbu	a1,-1975(gp) # 200003a1 <dead_time_override>
    2886:	82e19023          	sh	a4,-2016(gp) # 20000378 <tim1_arr>
    288a:	80e19a23          	sh	a4,-2028(gp) # 2000036c <throttle_max_at_high_rpm>
    288e:	02d7c7b3          	div	a5,a5,a3
    2892:	97ae                	add	a5,a5,a1
    2894:	82f19323          	sh	a5,-2010(gp) # 2000037e <startup_max_duty_cycle>
    2898:	8161d783          	lhu	a5,-2026(gp) # 2000036e <throttle_max_at_low_rpm>
    289c:	02e787b3          	mul	a5,a5,a4
    28a0:	02d7c7b3          	div	a5,a5,a3
    28a4:	80f19b23          	sh	a5,-2026(gp) # 2000036e <throttle_max_at_low_rpm>
    28a8:	85918703          	lb	a4,-1959(gp) # 200003b1 <comp_pwm>
    28ac:	e319                	bnez	a4,28b2 <main+0x194>
    28ae:	920188a3          	sb	zero,-1743(gp) # 20000489 <use_sin_start>
    28b2:	92c18703          	lb	a4,-1748(gp) # 20000484 <RC_CAR_REVERSE>
    28b6:	c721                	beqz	a4,28fe <main+0x1e0>
    28b8:	3e800713          	li	a4,1000
    28bc:	80e19b23          	sh	a4,-2026(gp) # 2000036e <throttle_max_at_low_rpm>
    28c0:	4705                	li	a4,1
    28c2:	92e18a23          	sb	a4,-1740(gp) # 2000048c <bi_direction>
    28c6:	82e188a3          	sb	a4,-1999(gp) # 20000389 <low_rpm_throttle_limit>
    28ca:	84018c23          	sb	zero,-1960(gp) # 200003b0 <VARIABLE_PWM>
    28ce:	84018ca3          	sb	zero,-1959(gp) # 200003b1 <comp_pwm>
    28d2:	84018ba3          	sb	zero,-1961(gp) # 200003af <stuck_rotor_protection>
    28d6:	8241d783          	lhu	a5,-2012(gp) # 2000037c <minimum_duty_cycle>
    28da:	920188a3          	sb	zero,-1743(gp) # 20000489 <use_sin_start>
    28de:	03278793          	addi	a5,a5,50
    28e2:	82f19223          	sh	a5,-2012(gp) # 2000037c <minimum_duty_cycle>
    28e6:	8221d783          	lhu	a5,-2014(gp) # 2000037a <stall_protect_minimum_duty>
    28ea:	03278793          	addi	a5,a5,50
    28ee:	82f19123          	sh	a5,-2014(gp) # 2000037a <stall_protect_minimum_duty>
    28f2:	82e1d783          	lhu	a5,-2002(gp) # 20000386 <min_startup_duty>
    28f6:	03278793          	addi	a5,a5,50
    28fa:	82f19723          	sh	a5,-2002(gp) # 20000386 <min_startup_duty>
    28fe:	0d6010ef          	jal	ra,39d4 <playStartupTune>
    2902:	8c019223          	sh	zero,-1852(gp) # 2000041c <zero_input_count>
    2906:	329010ef          	jal	ra,442e <MX_IWDG_Init>
    290a:	662020ef          	jal	ra,4f6c <IWDG_ReloadCounter>
    290e:	d43fe0ef          	jal	ra,1650 <checkForHighSignal>
    2912:	56a010ef          	jal	ra,3e7c <receiveDshotDma>
    2916:	9361c783          	lbu	a5,-1738(gp) # 2000048e <drive_by_rpm>
    291a:	c781                	beqz	a5,2922 <main+0x204>
    291c:	4705                	li	a4,1
    291e:	92e18423          	sb	a4,-1752(gp) # 20000480 <use_speed_control_loop>
    2922:	8781a783          	lw	a5,-1928(gp) # 200003d0 <SystemCoreClock+0x4>
    2926:	c23e                	sw	a5,4(sp)
    2928:	8881a783          	lw	a5,-1912(gp) # 200003e0 <SystemCoreClock+0x14>
    292c:	c43e                	sw	a5,8(sp)
    292e:	200007b7          	lui	a5,0x20000
    2932:	32078793          	addi	a5,a5,800 # 20000320 <speedPid>
    2936:	c63e                	sw	a5,12(sp)
    2938:	634020ef          	jal	ra,4f6c <IWDG_ReloadCounter>
    293c:	8e31c783          	lbu	a5,-1821(gp) # 2000043b <adc_counter>
    2940:	4729                	li	a4,10
    2942:	0785                	addi	a5,a5,1
    2944:	0ff7f793          	zext.b	a5,a5
    2948:	8ef181a3          	sb	a5,-1821(gp) # 2000043b <adc_counter>
    294c:	12f77663          	bgeu	a4,a5,2a78 <main+0x35a>
    2950:	400137b7          	lui	a5,0x40013
    2954:	c0078793          	addi	a5,a5,-1024 # 40012c00 <_eusrstack+0x2000dd00>
    2958:	3fde                	lhu	a5,60(a5)
    295a:	470d                	li	a4,3
    295c:	8201d683          	lhu	a3,-2016(gp) # 20000378 <tim1_arr>
    2960:	0786                	slli	a5,a5,0x1
    2962:	02e7c7b3          	div	a5,a5,a4
    2966:	0785                	addi	a5,a5,1
    2968:	07c2                	slli	a5,a5,0x10
    296a:	83c1                	srli	a5,a5,0x10
    296c:	82f19c23          	sh	a5,-1992(gp) # 20000390 <ADC_CCR>
    2970:	00f6f463          	bgeu	a3,a5,2978 <main+0x25a>
    2974:	82d19c23          	sh	a3,-1992(gp) # 20000390 <ADC_CCR>
    2978:	8381d703          	lhu	a4,-1992(gp) # 20000390 <ADC_CCR>
    297c:	400137b7          	lui	a5,0x40013
    2980:	6b85                	lui	s7,0x1
    2982:	c4e79023          	sh	a4,-960(a5) # 40012c40 <_eusrstack+0x2000dd40>
    2986:	8e81d503          	lhu	a0,-1816(gp) # 20000440 <ADC_raw_temp>
    298a:	8ea1c703          	lbu	a4,-1814(gp) # 20000442 <temperature_offset>
    298e:	fffb8a13          	addi	s4,s7,-1 # fff <__stack_size+0x7ff>
    2992:	ce4b8b93          	addi	s7,s7,-796
    2996:	8d19                	sub	a0,a0,a4
    2998:	0542                	slli	a0,a0,0x10
    299a:	8141                	srli	a0,a0,0x10
    299c:	8ea19423          	sh	a0,-1816(gp) # 20000440 <ADC_raw_temp>
    29a0:	03455533          	divu	a0,a0,s4
    29a4:	03750533          	mul	a0,a0,s7
    29a8:	1dc020ef          	jal	ra,4b84 <TempSensor_Volt_To_Temper>
    29ac:	8ea19623          	sh	a0,-1812(gp) # 20000444 <converted_degrees>
    29b0:	8ee1c783          	lbu	a5,-1810(gp) # 20000446 <degrees_celsius>
    29b4:	469d                	li	a3,7
    29b6:	0542                	slli	a0,a0,0x10
    29b8:	02d787b3          	mul	a5,a5,a3
    29bc:	8141                	srli	a0,a0,0x10
    29be:	4585                	li	a1,1
    29c0:	97aa                	add	a5,a5,a0
    29c2:	878d                	srai	a5,a5,0x3
    29c4:	8ef18723          	sb	a5,-1810(gp) # 20000446 <degrees_celsius>
    29c8:	8e61d783          	lhu	a5,-1818(gp) # 2000043e <ADC_raw_volts>
    29cc:	83018703          	lb	a4,-2000(gp) # 20000388 <VOLTAGE_DIVIDER>
    29d0:	037787b3          	mul	a5,a5,s7
    29d4:	40012537          	lui	a0,0x40012
    29d8:	40050513          	addi	a0,a0,1024 # 40012400 <_eusrstack+0x2000d500>
    29dc:	0347c7b3          	div	a5,a5,s4
    29e0:	02e787b3          	mul	a5,a5,a4
    29e4:	06400713          	li	a4,100
    29e8:	02e7c7b3          	div	a5,a5,a4
    29ec:	9101d703          	lhu	a4,-1776(gp) # 20000468 <battery_voltage>
    29f0:	02d70733          	mul	a4,a4,a3
    29f4:	97ba                	add	a5,a5,a4
    29f6:	9041a683          	lw	a3,-1788(gp) # 2000045c <smoothed_raw_current>
    29fa:	878d                	srai	a5,a5,0x3
    29fc:	90f19823          	sh	a5,-1776(gp) # 20000468 <battery_voltage>
    2a00:	03f00793          	li	a5,63
    2a04:	02d787b3          	mul	a5,a5,a3
    2a08:	8e41d683          	lhu	a3,-1820(gp) # 2000043c <ADC_raw_current>
    2a0c:	97b6                	add	a5,a5,a3
    2a0e:	8399                	srli	a5,a5,0x6
    2a10:	90f1a223          	sw	a5,-1788(gp) # 2000045c <smoothed_raw_current>
    2a14:	90019123          	sh	zero,-1790(gp) # 2000045a <actual_current>
    2a18:	07c020ef          	jal	ra,4a94 <ADC_SoftwareStartConvCmd>
    2a1c:	92d18783          	lb	a5,-1747(gp) # 20000485 <LOW_VOLTAGE_CUTOFF>
    2a20:	cbb1                	beqz	a5,2a74 <main+0x356>
    2a22:	83a1d703          	lhu	a4,-1990(gp) # 20000392 <low_cell_volt_cutoff>
    2a26:	90f18783          	lb	a5,-1777(gp) # 20000467 <cell_count>
    2a2a:	9101d683          	lhu	a3,-1776(gp) # 20000468 <battery_voltage>
    2a2e:	02e787b3          	mul	a5,a5,a4
    2a32:	12f6d863          	bge	a3,a5,2b62 <main+0x444>
    2a36:	9141d783          	lhu	a5,-1772(gp) # 2000046c <low_voltage_count>
    2a3a:	c7c00693          	li	a3,-900
    2a3e:	0785                	addi	a5,a5,1
    2a40:	07c2                	slli	a5,a5,0x10
    2a42:	83c1                	srli	a5,a5,0x10
    2a44:	90f19a23          	sh	a5,-1772(gp) # 2000046c <low_voltage_count>
    2a48:	8d118703          	lb	a4,-1839(gp) # 20000429 <stepper_sine>
    2a4c:	02d70733          	mul	a4,a4,a3
    2a50:	6695                	lui	a3,0x5
    2a52:	e2068693          	addi	a3,a3,-480 # 4e20 <GPIO_Init+0xd4>
    2a56:	9736                	add	a4,a4,a3
    2a58:	00f75e63          	bge	a4,a5,2a74 <main+0x356>
    2a5c:	8c019123          	sh	zero,-1854(gp) # 2000041a <input>
    2a60:	2cd000ef          	jal	ra,352c <allOff>
    2a64:	7b6010ef          	jal	ra,421a <maskPhaseInterrupts>
    2a68:	8c018d23          	sb	zero,-1830(gp) # 20000432 <running>
    2a6c:	8c019223          	sh	zero,-1852(gp) # 2000041c <zero_input_count>
    2a70:	8c018323          	sb	zero,-1850(gp) # 2000041e <armed>
    2a74:	8e0181a3          	sb	zero,-1821(gp) # 2000043b <adc_counter>
    2a78:	8c018823          	sb	zero,-1840(gp) # 20000428 <stuckcounter>
    2a7c:	93418783          	lb	a5,-1740(gp) # 2000048c <bi_direction>
    2a80:	4685                	li	a3,1
    2a82:	8bd18703          	lb	a4,-1859(gp) # 20000415 <dshot>
    2a86:	8c01d503          	lhu	a0,-1856(gp) # 20000418 <newinput>
    2a8a:	20d79b63          	bne	a5,a3,2ca0 <main+0x582>
    2a8e:	20071d63          	bnez	a4,2ca8 <main+0x58a>
    2a92:	83c1c583          	lbu	a1,-1988(gp) # 20000394 <servo_dead_band>
    2a96:	92c18703          	lb	a4,-1748(gp) # 20000484 <RC_CAR_REVERSE>
    2a9a:	0586                	slli	a1,a1,0x1
    2a9c:	3e858593          	addi	a1,a1,1000
    2aa0:	0e070963          	beqz	a4,2b92 <main+0x474>
    2aa4:	00a5df63          	bge	a1,a0,2ac2 <main+0x3a4>
    2aa8:	93518603          	lb	a2,-1739(gp) # 2000048d <dir_reversed>
    2aac:	80c18683          	lb	a3,-2036(gp) # 20000364 <forward>
    2ab0:	0cc69063          	bne	a3,a2,2b70 <main+0x452>
    2ab4:	8da1c603          	lbu	a2,-1830(gp) # 20000432 <running>
    2ab8:	8c019e23          	sh	zero,-1828(gp) # 20000434 <adjusted_input>
    2abc:	c655                	beqz	a2,2b68 <main+0x44a>
    2abe:	8ef180a3          	sb	a5,-1823(gp) # 20000439 <prop_brake_active>
    2ac2:	83c1c783          	lbu	a5,-1988(gp) # 20000394 <servo_dead_band>
    2ac6:	8c01d503          	lhu	a0,-1856(gp) # 20000418 <newinput>
    2aca:	3e800613          	li	a2,1000
    2ace:	0786                	slli	a5,a5,0x1
    2ad0:	8e1d                	sub	a2,a2,a5
    2ad2:	02c55e63          	bge	a0,a2,2b0e <main+0x3f0>
    2ad6:	93518703          	lb	a4,-1739(gp) # 2000048d <dir_reversed>
    2ada:	80c18803          	lb	a6,-2036(gp) # 20000364 <forward>
    2ade:	4685                	li	a3,1
    2ae0:	40e685b3          	sub	a1,a3,a4
    2ae4:	00b81963          	bne	a6,a1,2af6 <main+0x3d8>
    2ae8:	8da1c583          	lbu	a1,-1830(gp) # 20000432 <running>
    2aec:	c1c5                	beqz	a1,2b8c <main+0x46e>
    2aee:	8ed180a3          	sb	a3,-1823(gp) # 20000439 <prop_brake_active>
    2af2:	8c019e23          	sh	zero,-1828(gp) # 20000434 <adjusted_input>
    2af6:	8e118783          	lb	a5,-1823(gp) # 20000439 <prop_brake_active>
    2afa:	eb91                	bnez	a5,2b0e <main+0x3f0>
    2afc:	02f00713          	li	a4,47
    2b00:	7ff00693          	li	a3,2047
    2b04:	4581                	li	a1,0
    2b06:	afbfe0ef          	jal	ra,1600 <map>
    2b0a:	8ca19e23          	sh	a0,-1828(gp) # 20000434 <adjusted_input>
    2b0e:	83c1c783          	lbu	a5,-1988(gp) # 20000394 <servo_dead_band>
    2b12:	8c01d683          	lhu	a3,-1856(gp) # 20000418 <newinput>
    2b16:	3e800713          	li	a4,1000
    2b1a:	0786                	slli	a5,a5,0x1
    2b1c:	8f1d                	sub	a4,a4,a5
    2b1e:	00e6ca63          	blt	a3,a4,2b32 <main+0x414>
    2b22:	3e878793          	addi	a5,a5,1000
    2b26:	00d7c663          	blt	a5,a3,2b32 <main+0x414>
    2b2a:	8c019e23          	sh	zero,-1828(gp) # 20000434 <adjusted_input>
    2b2e:	8e0180a3          	sb	zero,-1823(gp) # 20000439 <prop_brake_active>
    2b32:	8b81a783          	lw	a5,-1864(gp) # 20000410 <zero_crosses>
    2b36:	3e800693          	li	a3,1000
    2b3a:	8dc1d503          	lhu	a0,-1828(gp) # 20000434 <adjusted_input>
    2b3e:	24f6f763          	bgeu	a3,a5,2d8c <main+0x66e>
    2b42:	8c018da3          	sb	zero,-1829(gp) # 20000433 <bemf_timeout_happened>
    2b46:	0c700793          	li	a5,199
    2b4a:	26a7f163          	bgeu	a5,a0,2dac <main+0x68e>
    2b4e:	93118783          	lb	a5,-1743(gp) # 20000489 <use_sin_start>
    2b52:	28079763          	bnez	a5,2de0 <main+0x6c2>
    2b56:	91618783          	lb	a5,-1770(gp) # 2000046e <crawler_mode>
    2b5a:	44079763          	bnez	a5,2fa8 <main+0x88a>
    2b5e:	4729                	li	a4,10
    2b60:	a491                	j	2da4 <main+0x686>
    2b62:	90019a23          	sh	zero,-1772(gp) # 2000046c <low_voltage_count>
    2b66:	b739                	j	2a74 <main+0x356>
    2b68:	4785                	li	a5,1
    2b6a:	8f95                	sub	a5,a5,a3
    2b6c:	80f18623          	sb	a5,-2036(gp) # 20000364 <forward>
    2b70:	8e118783          	lb	a5,-1823(gp) # 20000439 <prop_brake_active>
    2b74:	f7b9                	bnez	a5,2ac2 <main+0x3a4>
    2b76:	7ff00713          	li	a4,2047
    2b7a:	02f00693          	li	a3,47
    2b7e:	7d000613          	li	a2,2000
    2b82:	a7ffe0ef          	jal	ra,1600 <map>
    2b86:	8ca19e23          	sh	a0,-1828(gp) # 20000434 <adjusted_input>
    2b8a:	bf25                	j	2ac2 <main+0x3a4>
    2b8c:	80e18623          	sb	a4,-2036(gp) # 20000364 <forward>
    2b90:	b78d                	j	2af2 <main+0x3d4>
    2b92:	06a5d263          	bge	a1,a0,2bf6 <main+0x4d8>
    2b96:	93518703          	lb	a4,-1739(gp) # 2000048d <dir_reversed>
    2b9a:	80c18783          	lb	a5,-2036(gp) # 20000364 <forward>
    2b9e:	02e79b63          	bne	a5,a4,2bd4 <main+0x4b6>
    2ba2:	200007b7          	lui	a5,0x20000
    2ba6:	3587d683          	lhu	a3,856(a5) # 20000358 <commutation_interval>
    2baa:	8341d783          	lhu	a5,-1996(gp) # 2000038c <reverse_speed_threshold>
    2bae:	00d7e663          	bltu	a5,a3,2bba <main+0x49c>
    2bb2:	8d118783          	lb	a5,-1839(gp) # 20000429 <stepper_sine>
    2bb6:	0c078d63          	beqz	a5,2c90 <main+0x572>
    2bba:	4785                	li	a5,1
    2bbc:	8f99                	sub	a5,a5,a4
    2bbe:	80f18623          	sb	a5,-2036(gp) # 20000364 <forward>
    2bc2:	4705                	li	a4,1
    2bc4:	8ce18f23          	sb	a4,-1826(gp) # 20000436 <old_routine>
    2bc8:	8a01ac23          	sw	zero,-1864(gp) # 20000410 <zero_crosses>
    2bcc:	64e010ef          	jal	ra,421a <maskPhaseInterrupts>
    2bd0:	90018723          	sb	zero,-1778(gp) # 20000466 <brushed_direction_set>
    2bd4:	83c1c583          	lbu	a1,-1988(gp) # 20000394 <servo_dead_band>
    2bd8:	8c01d503          	lhu	a0,-1856(gp) # 20000418 <newinput>
    2bdc:	7ff00713          	li	a4,2047
    2be0:	0586                	slli	a1,a1,0x1
    2be2:	02f00693          	li	a3,47
    2be6:	7d000613          	li	a2,2000
    2bea:	3e858593          	addi	a1,a1,1000
    2bee:	a13fe0ef          	jal	ra,1600 <map>
    2bf2:	8ca19e23          	sh	a0,-1828(gp) # 20000434 <adjusted_input>
    2bf6:	83c1c783          	lbu	a5,-1988(gp) # 20000394 <servo_dead_band>
    2bfa:	8c01d683          	lhu	a3,-1856(gp) # 20000418 <newinput>
    2bfe:	3e800713          	li	a4,1000
    2c02:	0786                	slli	a5,a5,0x1
    2c04:	40f707b3          	sub	a5,a4,a5
    2c08:	06f6d163          	bge	a3,a5,2c6a <main+0x54c>
    2c0c:	93518683          	lb	a3,-1739(gp) # 2000048d <dir_reversed>
    2c10:	80c18603          	lb	a2,-2036(gp) # 20000364 <forward>
    2c14:	4785                	li	a5,1
    2c16:	8f95                	sub	a5,a5,a3
    2c18:	02f61863          	bne	a2,a5,2c48 <main+0x52a>
    2c1c:	200007b7          	lui	a5,0x20000
    2c20:	3587d603          	lhu	a2,856(a5) # 20000358 <commutation_interval>
    2c24:	8341d783          	lhu	a5,-1996(gp) # 2000038c <reverse_speed_threshold>
    2c28:	00c7e563          	bltu	a5,a2,2c32 <main+0x514>
    2c2c:	8d118783          	lb	a5,-1839(gp) # 20000429 <stepper_sine>
    2c30:	c7ad                	beqz	a5,2c9a <main+0x57c>
    2c32:	4705                	li	a4,1
    2c34:	8ce18f23          	sb	a4,-1826(gp) # 20000436 <old_routine>
    2c38:	8a01ac23          	sw	zero,-1864(gp) # 20000410 <zero_crosses>
    2c3c:	80d18623          	sb	a3,-2036(gp) # 20000364 <forward>
    2c40:	5da010ef          	jal	ra,421a <maskPhaseInterrupts>
    2c44:	90018723          	sb	zero,-1778(gp) # 20000466 <brushed_direction_set>
    2c48:	83c1c783          	lbu	a5,-1988(gp) # 20000394 <servo_dead_band>
    2c4c:	8c01d503          	lhu	a0,-1856(gp) # 20000418 <newinput>
    2c50:	3e800613          	li	a2,1000
    2c54:	0786                	slli	a5,a5,0x1
    2c56:	02f00713          	li	a4,47
    2c5a:	7ff00693          	li	a3,2047
    2c5e:	8e1d                	sub	a2,a2,a5
    2c60:	4581                	li	a1,0
    2c62:	99ffe0ef          	jal	ra,1600 <map>
    2c66:	8ca19e23          	sh	a0,-1828(gp) # 20000434 <adjusted_input>
    2c6a:	83c1c783          	lbu	a5,-1988(gp) # 20000394 <servo_dead_band>
    2c6e:	8c01d683          	lhu	a3,-1856(gp) # 20000418 <newinput>
    2c72:	3e800713          	li	a4,1000
    2c76:	0786                	slli	a5,a5,0x1
    2c78:	8f1d                	sub	a4,a4,a5
    2c7a:	eae6cce3          	blt	a3,a4,2b32 <main+0x414>
    2c7e:	3e878793          	addi	a5,a5,1000
    2c82:	ead7c8e3          	blt	a5,a3,2b32 <main+0x414>
    2c86:	8c019e23          	sh	zero,-1828(gp) # 20000434 <adjusted_input>
    2c8a:	90018723          	sb	zero,-1778(gp) # 20000466 <brushed_direction_set>
    2c8e:	b555                	j	2b32 <main+0x414>
    2c90:	3e800793          	li	a5,1000
    2c94:	8cf19023          	sh	a5,-1856(gp) # 20000418 <newinput>
    2c98:	bf35                	j	2bd4 <main+0x4b6>
    2c9a:	8ce19023          	sh	a4,-1856(gp) # 20000418 <newinput>
    2c9e:	b76d                	j	2c48 <main+0x52a>
    2ca0:	0e070363          	beqz	a4,2d86 <main+0x668>
    2ca4:	0e078163          	beqz	a5,2d86 <main+0x668>
    2ca8:	41700793          	li	a5,1047
    2cac:	04a7fc63          	bgeu	a5,a0,2d04 <main+0x5e6>
    2cb0:	93518703          	lb	a4,-1739(gp) # 2000048d <dir_reversed>
    2cb4:	80c18783          	lb	a5,-2036(gp) # 20000364 <forward>
    2cb8:	02e79a63          	bne	a5,a4,2cec <main+0x5ce>
    2cbc:	200007b7          	lui	a5,0x20000
    2cc0:	3587d683          	lhu	a3,856(a5) # 20000358 <commutation_interval>
    2cc4:	8341d783          	lhu	a5,-1996(gp) # 2000038c <reverse_speed_threshold>
    2cc8:	00d7e563          	bltu	a5,a3,2cd2 <main+0x5b4>
    2ccc:	8d118783          	lb	a5,-1839(gp) # 20000429 <stepper_sine>
    2cd0:	c7cd                	beqz	a5,2d7a <main+0x65c>
    2cd2:	4785                	li	a5,1
    2cd4:	8f99                	sub	a5,a5,a4
    2cd6:	80f18623          	sb	a5,-2036(gp) # 20000364 <forward>
    2cda:	4705                	li	a4,1
    2cdc:	8ce18f23          	sb	a4,-1826(gp) # 20000436 <old_routine>
    2ce0:	8a01ac23          	sw	zero,-1864(gp) # 20000410 <zero_crosses>
    2ce4:	536010ef          	jal	ra,421a <maskPhaseInterrupts>
    2ce8:	90018723          	sb	zero,-1778(gp) # 20000466 <brushed_direction_set>
    2cec:	8c01d783          	lhu	a5,-1856(gp) # 20000418 <newinput>
    2cf0:	82a18703          	lb	a4,-2006(gp) # 20000382 <reversing_dead_band>
    2cf4:	be878793          	addi	a5,a5,-1048
    2cf8:	0786                	slli	a5,a5,0x1
    2cfa:	8f99                	sub	a5,a5,a4
    2cfc:	02f78793          	addi	a5,a5,47
    2d00:	8cf19e23          	sh	a5,-1828(gp) # 20000434 <adjusted_input>
    2d04:	8c01d783          	lhu	a5,-1856(gp) # 20000418 <newinput>
    2d08:	3e700713          	li	a4,999
    2d0c:	fd078793          	addi	a5,a5,-48
    2d10:	07c2                	slli	a5,a5,0x10
    2d12:	83c1                	srli	a5,a5,0x10
    2d14:	04f76c63          	bltu	a4,a5,2d6c <main+0x64e>
    2d18:	93518703          	lb	a4,-1739(gp) # 2000048d <dir_reversed>
    2d1c:	80c18683          	lb	a3,-2036(gp) # 20000364 <forward>
    2d20:	4785                	li	a5,1
    2d22:	8f99                	sub	a5,a5,a4
    2d24:	02f69863          	bne	a3,a5,2d54 <main+0x636>
    2d28:	200007b7          	lui	a5,0x20000
    2d2c:	3587d683          	lhu	a3,856(a5) # 20000358 <commutation_interval>
    2d30:	8341d783          	lhu	a5,-1996(gp) # 2000038c <reverse_speed_threshold>
    2d34:	00d7e563          	bltu	a5,a3,2d3e <main+0x620>
    2d38:	8d118783          	lb	a5,-1839(gp) # 20000429 <stepper_sine>
    2d3c:	c3b1                	beqz	a5,2d80 <main+0x662>
    2d3e:	4685                	li	a3,1
    2d40:	8cd18f23          	sb	a3,-1826(gp) # 20000436 <old_routine>
    2d44:	8a01ac23          	sw	zero,-1864(gp) # 20000410 <zero_crosses>
    2d48:	80e18623          	sb	a4,-2036(gp) # 20000364 <forward>
    2d4c:	4ce010ef          	jal	ra,421a <maskPhaseInterrupts>
    2d50:	90018723          	sb	zero,-1778(gp) # 20000466 <brushed_direction_set>
    2d54:	8c01d783          	lhu	a5,-1856(gp) # 20000418 <newinput>
    2d58:	82a18703          	lb	a4,-2006(gp) # 20000382 <reversing_dead_band>
    2d5c:	fd078793          	addi	a5,a5,-48
    2d60:	0786                	slli	a5,a5,0x1
    2d62:	8f99                	sub	a5,a5,a4
    2d64:	02f78793          	addi	a5,a5,47
    2d68:	8cf19e23          	sh	a5,-1828(gp) # 20000434 <adjusted_input>
    2d6c:	8c01d703          	lhu	a4,-1856(gp) # 20000418 <newinput>
    2d70:	02f00793          	li	a5,47
    2d74:	f0e7f9e3          	bgeu	a5,a4,2c86 <main+0x568>
    2d78:	bb6d                	j	2b32 <main+0x414>
    2d7a:	8c019023          	sh	zero,-1856(gp) # 20000418 <newinput>
    2d7e:	b7bd                	j	2cec <main+0x5ce>
    2d80:	8c019023          	sh	zero,-1856(gp) # 20000418 <newinput>
    2d84:	bfc1                	j	2d54 <main+0x636>
    2d86:	8ca19e23          	sh	a0,-1828(gp) # 20000434 <adjusted_input>
    2d8a:	b365                	j	2b32 <main+0x414>
    2d8c:	e91d                	bnez	a0,2dc2 <main+0x6a4>
    2d8e:	93118683          	lb	a3,-1743(gp) # 20000489 <use_sin_start>
    2d92:	8c018da3          	sb	zero,-1829(gp) # 20000433 <bemf_timeout_happened>
    2d96:	eaad                	bnez	a3,2e08 <main+0x6ea>
    2d98:	91618783          	lb	a5,-1770(gp) # 2000046e <crawler_mode>
    2d9c:	20079b63          	bnez	a5,2fb2 <main+0x894>
    2da0:	06400713          	li	a4,100
    2da4:	82e185a3          	sb	a4,-2005(gp) # 20000383 <bemf_timeout>
    2da8:	4701                	li	a4,0
    2daa:	a0b5                	j	2e16 <main+0x6f8>
    2dac:	93118783          	lb	a5,-1743(gp) # 20000489 <use_sin_start>
    2db0:	8c018da3          	sb	zero,-1829(gp) # 20000433 <bemf_timeout_happened>
    2db4:	e395                	bnez	a5,2dd8 <main+0x6ba>
    2db6:	91618703          	lb	a4,-1770(gp) # 2000046e <crawler_mode>
    2dba:	1e071a63          	bnez	a4,2fae <main+0x890>
    2dbe:	4781                	li	a5,0
    2dc0:	a83d                	j	2dfe <main+0x6e0>
    2dc2:	06400693          	li	a3,100
    2dc6:	d8f6e0e3          	bltu	a3,a5,2b46 <main+0x428>
    2dca:	93118783          	lb	a5,-1743(gp) # 20000489 <use_sin_start>
    2dce:	e789                	bnez	a5,2dd8 <main+0x6ba>
    2dd0:	91618703          	lb	a4,-1770(gp) # 2000046e <crawler_mode>
    2dd4:	d76d                	beqz	a4,2dbe <main+0x6a0>
    2dd6:	a809                	j	2de8 <main+0x6ca>
    2dd8:	09f00693          	li	a3,159
    2ddc:	00a6fc63          	bgeu	a3,a0,2df4 <main+0x6d6>
    2de0:	91618703          	lb	a4,-1770(gp) # 2000046e <crawler_mode>
    2de4:	d6070de3          	beqz	a4,2b5e <main+0x440>
    2de8:	18f00693          	li	a3,399
    2dec:	02a6e563          	bltu	a3,a0,2e16 <main+0x6f8>
    2df0:	86be                	mv	a3,a5
    2df2:	a839                	j	2e10 <main+0x6f2>
    2df4:	91618703          	lb	a4,-1770(gp) # 2000046e <crawler_mode>
    2df8:	8c018da3          	sb	zero,-1829(gp) # 20000433 <bemf_timeout_happened>
    2dfc:	fb75                	bnez	a4,2df0 <main+0x6d2>
    2dfe:	09500713          	li	a4,149
    2e02:	f8a77fe3          	bgeu	a4,a0,2da0 <main+0x682>
    2e06:	bba1                	j	2b5e <main+0x440>
    2e08:	91618703          	lb	a4,-1770(gp) # 2000046e <crawler_mode>
    2e0c:	87b6                	mv	a5,a3
    2e0e:	db49                	beqz	a4,2da0 <main+0x682>
    2e10:	8c018da3          	sb	zero,-1829(gp) # 20000433 <bemf_timeout_happened>
    2e14:	87b6                	mv	a5,a3
    2e16:	06400593          	li	a1,100
    2e1a:	02b70733          	mul	a4,a4,a1
    2e1e:	82b18603          	lb	a2,-2005(gp) # 20000383 <bemf_timeout>
    2e22:	8db1c683          	lbu	a3,-1829(gp) # 20000433 <bemf_timeout_happened>
    2e26:	0705                	addi	a4,a4,1
    2e28:	02c70733          	mul	a4,a4,a2
    2e2c:	18d75563          	bge	a4,a3,2fb6 <main+0x898>
    2e30:	85718703          	lb	a4,-1961(gp) # 200003af <stuck_rotor_protection>
    2e34:	18070163          	beqz	a4,2fb6 <main+0x898>
    2e38:	6f4000ef          	jal	ra,352c <allOff>
    2e3c:	3de010ef          	jal	ra,421a <maskPhaseInterrupts>
    2e40:	8c019123          	sh	zero,-1854(gp) # 2000041a <input>
    2e44:	06600793          	li	a5,102
    2e48:	8cf18da3          	sb	a5,-1829(gp) # 20000433 <bemf_timeout_happened>
    2e4c:	8d118783          	lb	a5,-1839(gp) # 20000429 <stepper_sine>
    2e50:	26079563          	bnez	a5,30ba <main+0x99c>
    2e54:	8f01a783          	lw	a5,-1808(gp) # 20000448 <e_com_time>
    2e58:	6561                	lui	a0,0x18
    2e5a:	6a050513          	addi	a0,a0,1696 # 186a0 <_data_lma+0x120a8>
    2e5e:	02f54533          	div	a0,a0,a5
    2e62:	8da1c783          	lbu	a5,-1830(gp) # 20000432 <running>
    2e66:	02f50533          	mul	a0,a0,a5
    2e6a:	4799                	li	a5,6
    2e6c:	02f50533          	mul	a0,a0,a5
    2e70:	0542                	slli	a0,a0,0x10
    2e72:	8141                	srli	a0,a0,0x10
    2e74:	8ca19623          	sh	a0,-1844(gp) # 20000424 <e_rpm>
    2e78:	47a9                	li	a5,10
    2e7a:	02f55533          	divu	a0,a0,a5
    2e7e:	8ca19723          	sh	a0,-1842(gp) # 20000426 <k_erpm>
    2e82:	83118783          	lb	a5,-1999(gp) # 20000389 <low_rpm_throttle_limit>
    2e86:	cf89                	beqz	a5,2ea0 <main+0x782>
    2e88:	8181d603          	lhu	a2,-2024(gp) # 20000370 <high_rpm_level>
    2e8c:	81a1d583          	lhu	a1,-2022(gp) # 20000372 <low_rpm_level>
    2e90:	8141d703          	lhu	a4,-2028(gp) # 2000036c <throttle_max_at_high_rpm>
    2e94:	8161d683          	lhu	a3,-2026(gp) # 2000036e <throttle_max_at_low_rpm>
    2e98:	f68fe0ef          	jal	ra,1600 <map>
    2e9c:	80a19e23          	sh	a0,-2020(gp) # 20000374 <duty_cycle_maximum>
    2ea0:	8ee1c503          	lbu	a0,-1810(gp) # 20000446 <degrees_celsius>
    2ea4:	8551c583          	lbu	a1,-1963(gp) # 200003ad <TEMPERATURE_LIMIT>
    2ea8:	00a5fd63          	bgeu	a1,a0,2ec2 <main+0x7a4>
    2eac:	8141d683          	lhu	a3,-2028(gp) # 2000036c <throttle_max_at_high_rpm>
    2eb0:	00a58613          	addi	a2,a1,10
    2eb4:	4705                	li	a4,1
    2eb6:	8285                	srli	a3,a3,0x1
    2eb8:	15d9                	addi	a1,a1,-10
    2eba:	f46fe0ef          	jal	ra,1600 <map>
    2ebe:	80a19e23          	sh	a0,-2020(gp) # 20000374 <duty_cycle_maximum>
    2ec2:	8b81a703          	lw	a4,-1864(gp) # 20000410 <zero_crosses>
    2ec6:	06300793          	li	a5,99
    2eca:	20000b37          	lui	s6,0x20000
    2ece:	4531                	li	a0,12
    2ed0:	02e7f463          	bgeu	a5,a4,2ef8 <main+0x7da>
    2ed4:	358b5703          	lhu	a4,856(s6) # 20000358 <commutation_interval>
    2ed8:	1f400793          	li	a5,500
    2edc:	00e7ee63          	bltu	a5,a4,2ef8 <main+0x7da>
    2ee0:	8f81a503          	lw	a0,-1800(gp) # 20000450 <average_interval>
    2ee4:	4729                	li	a4,10
    2ee6:	468d                	li	a3,3
    2ee8:	1f400613          	li	a2,500
    2eec:	06400593          	li	a1,100
    2ef0:	f10fe0ef          	jal	ra,1600 <map>
    2ef4:	0ff57513          	zext.b	a0,a0
    2ef8:	358b5683          	lhu	a3,856(s6)
    2efc:	80a18923          	sb	a0,-2030(gp) # 2000036a <filter_level>
    2f00:	06300713          	li	a4,99
    2f04:	00d76563          	bltu	a4,a3,2f0e <main+0x7f0>
    2f08:	4709                	li	a4,2
    2f0a:	80e18923          	sb	a4,-2030(gp) # 2000036a <filter_level>
    2f0e:	8521d683          	lhu	a3,-1966(gp) # 200003aa <motor_kv>
    2f12:	1f300713          	li	a4,499
    2f16:	00d76763          	bltu	a4,a3,2f24 <main+0x806>
    2f1a:	8121c703          	lbu	a4,-2030(gp) # 2000036a <filter_level>
    2f1e:	0706                	slli	a4,a4,0x1
    2f20:	80e18923          	sb	a4,-2030(gp) # 2000036a <filter_level>
    2f24:	8de18783          	lb	a5,-1826(gp) # 20000436 <old_routine>
    2f28:	cf85                	beqz	a5,2f60 <main+0x842>
    2f2a:	8da1c783          	lbu	a5,-1830(gp) # 20000432 <running>
    2f2e:	cb8d                	beqz	a5,2f60 <main+0x842>
    2f30:	2ea010ef          	jal	ra,421a <maskPhaseInterrupts>
    2f34:	c1dfe0ef          	jal	ra,1b50 <getBemfState>
    2f38:	8b71c783          	lbu	a5,-1865(gp) # 2000040f <zcfound>
    2f3c:	e395                	bnez	a5,2f60 <main+0x842>
    2f3e:	81018683          	lb	a3,-2032(gp) # 20000368 <rising>
    2f42:	8b61c783          	lbu	a5,-1866(gp) # 2000040e <bemfcounter>
    2f46:	16068563          	beqz	a3,30b0 <main+0x992>
    2f4a:	200006b7          	lui	a3,0x20000
    2f4e:	35c6c683          	lbu	a3,860(a3) # 2000035c <min_bemf_counts_up>
    2f52:	00f6f763          	bgeu	a3,a5,2f60 <main+0x842>
    2f56:	4785                	li	a5,1
    2f58:	8af18ba3          	sb	a5,-1865(gp) # 2000040f <zcfound>
    2f5c:	f1eff0ef          	jal	ra,267a <zcfoundroutine>
    2f60:	400017b7          	lui	a5,0x40001
    2f64:	8247d703          	lhu	a4,-2012(a5) # 40000824 <_eusrstack+0x1fffb924>
    2f68:	67ad                	lui	a5,0xb
    2f6a:	fc878793          	addi	a5,a5,-56 # afc8 <_data_lma+0x49d0>
    2f6e:	9ce7f5e3          	bgeu	a5,a4,2938 <main+0x21a>
    2f72:	8da1cb83          	lbu	s7,-1830(gp) # 20000432 <running>
    2f76:	4785                	li	a5,1
    2f78:	9cfb90e3          	bne	s7,a5,2938 <main+0x21a>
    2f7c:	8db1c783          	lbu	a5,-1829(gp) # 20000433 <bemf_timeout_happened>
    2f80:	0785                	addi	a5,a5,1
    2f82:	8cf18da3          	sb	a5,-1829(gp) # 20000433 <bemf_timeout_happened>
    2f86:	294010ef          	jal	ra,421a <maskPhaseInterrupts>
    2f8a:	8c21d703          	lhu	a4,-1854(gp) # 2000041a <input>
    2f8e:	8d718f23          	sb	s7,-1826(gp) # 20000436 <old_routine>
    2f92:	02f00793          	li	a5,47
    2f96:	00e7e463          	bltu	a5,a4,2f9e <main+0x880>
    2f9a:	8c018d23          	sb	zero,-1830(gp) # 20000432 <running>
    2f9e:	8a01ac23          	sw	zero,-1864(gp) # 20000410 <zero_crosses>
    2fa2:	ed8ff0ef          	jal	ra,267a <zcfoundroutine>
    2fa6:	ba49                	j	2938 <main+0x21a>
    2fa8:	873e                	mv	a4,a5
    2faa:	4781                	li	a5,0
    2fac:	bd35                	j	2de8 <main+0x6ca>
    2fae:	4681                	li	a3,0
    2fb0:	b585                	j	2e10 <main+0x6f2>
    2fb2:	873e                	mv	a4,a5
    2fb4:	bdb1                	j	2e10 <main+0x6f2>
    2fb6:	cfb1                	beqz	a5,3012 <main+0x8f4>
    2fb8:	47f5                	li	a5,29
    2fba:	84818603          	lb	a2,-1976(gp) # 200003a0 <sine_mode_changeover_thottle_level>
    2fbe:	02a7e863          	bltu	a5,a0,2fee <main+0x8d0>
    2fc2:	8c019123          	sh	zero,-1854(gp) # 2000041a <input>
    2fc6:	84818583          	lb	a1,-1976(gp) # 200003a0 <sine_mode_changeover_thottle_level>
    2fca:	47d1                	li	a5,20
    2fcc:	8dc1d503          	lhu	a0,-1828(gp) # 20000434 <adjusted_input>
    2fd0:	02f585b3          	mul	a1,a1,a5
    2fd4:	e6b54ce3          	blt	a0,a1,2e4c <main+0x72e>
    2fd8:	7ff00713          	li	a4,2047
    2fdc:	0a000693          	li	a3,160
    2fe0:	7ff00613          	li	a2,2047
    2fe4:	e1cfe0ef          	jal	ra,1600 <map>
    2fe8:	8ca19123          	sh	a0,-1854(gp) # 2000041a <input>
    2fec:	b585                	j	2e4c <main+0x72e>
    2fee:	47f9                	li	a5,30
    2ff0:	fcf50be3          	beq	a0,a5,2fc6 <main+0x8a8>
    2ff4:	47d1                	li	a5,20
    2ff6:	02f60633          	mul	a2,a2,a5
    2ffa:	fcc556e3          	bge	a0,a2,2fc6 <main+0x8a8>
    2ffe:	0a000713          	li	a4,160
    3002:	02f00693          	li	a3,47
    3006:	45f9                	li	a1,30
    3008:	df8fe0ef          	jal	ra,1600 <map>
    300c:	8ca19123          	sh	a0,-1854(gp) # 2000041a <input>
    3010:	bf5d                	j	2fc6 <main+0x8a8>
    3012:	92818783          	lb	a5,-1752(gp) # 20000480 <use_speed_control_loop>
    3016:	cbd1                	beqz	a5,30aa <main+0x98c>
    3018:	9361c783          	lbu	a5,-1738(gp) # 2000048e <drive_by_rpm>
    301c:	cbb1                	beqz	a5,3070 <main+0x952>
    301e:	8601a703          	lw	a4,-1952(gp) # 200003b8 <MAXIMUM_RPM_SPEED_CONTROL>
    3022:	85c1a683          	lw	a3,-1956(gp) # 200003b4 <MINIMUM_RPM_SPEED_CONTROL>
    3026:	7ff00613          	li	a2,2047
    302a:	02f00593          	li	a1,47
    302e:	dd2fe0ef          	jal	ra,1600 <map>
    3032:	85018703          	lb	a4,-1968(gp) # 200003a8 <motor_poles>
    3036:	039387b7          	lui	a5,0x3938
    303a:	70078793          	addi	a5,a5,1792 # 3938700 <_data_lma+0x3932108>
    303e:	4689                	li	a3,2
    3040:	02d74733          	div	a4,a4,a3
    3044:	02a7c7b3          	div	a5,a5,a0
    3048:	02e7c7b3          	div	a5,a5,a4
    304c:	92f19523          	sh	a5,-1750(gp) # 20000482 <target_e_com_time>
    3050:	8dc1d703          	lhu	a4,-1828(gp) # 20000434 <adjusted_input>
    3054:	02e00793          	li	a5,46
    3058:	00e7ec63          	bltu	a5,a4,3070 <main+0x952>
    305c:	47b2                	lw	a5,12(sp)
    305e:	8c019123          	sh	zero,-1854(gp) # 2000041a <input>
    3062:	0007a023          	sw	zero,0(a5)
    3066:	00000793          	li	a5,0
    306a:	92f1a223          	sw	a5,-1756(gp) # 2000047c <input_override>
    306e:	bbf9                	j	2e4c <main+0x72e>
    3070:	9241a403          	lw	s0,-1756(gp) # 2000047c <input_override>
    3074:	4592                	lw	a1,4(sp)
    3076:	8522                	mv	a0,s0
    3078:	4b3020ef          	jal	ra,5d2a <__gesf2>
    307c:	7ff00793          	li	a5,2047
    3080:	00a04863          	bgtz	a0,3090 <main+0x972>
    3084:	8522                	mv	a0,s0
    3086:	10a030ef          	jal	ra,6190 <__fixunssfsi>
    308a:	01051793          	slli	a5,a0,0x10
    308e:	83c1                	srli	a5,a5,0x10
    3090:	45a2                	lw	a1,8(sp)
    3092:	8522                	mv	a0,s0
    3094:	8cf19123          	sh	a5,-1854(gp) # 2000041a <input>
    3098:	529020ef          	jal	ra,5dc0 <__lesf2>
    309c:	da0558e3          	bgez	a0,2e4c <main+0x72e>
    30a0:	03000793          	li	a5,48
    30a4:	8cf19123          	sh	a5,-1854(gp) # 2000041a <input>
    30a8:	b355                	j	2e4c <main+0x72e>
    30aa:	8ca19123          	sh	a0,-1854(gp) # 2000041a <input>
    30ae:	bb79                	j	2e4c <main+0x72e>
    30b0:	200006b7          	lui	a3,0x20000
    30b4:	35b6c683          	lbu	a3,859(a3) # 2000035b <min_bemf_counts_down>
    30b8:	bd69                	j	2f52 <main+0x834>
    30ba:	8c21d783          	lhu	a5,-1854(gp) # 2000041a <input>
    30be:	03000713          	li	a4,48
    30c2:	12f77b63          	bgeu	a4,a5,31f8 <main+0xada>
    30c6:	8c618703          	lb	a4,-1850(gp) # 2000041e <armed>
    30ca:	12070763          	beqz	a4,31f8 <main+0xada>
    30ce:	fcf78793          	addi	a5,a5,-49
    30d2:	07c2                	slli	a5,a5,0x10
    30d4:	83c1                	srli	a5,a5,0x10
    30d6:	05700713          	li	a4,87
    30da:	08f76363          	bltu	a4,a5,3160 <main+0xa42>
    30de:	92e18783          	lb	a5,-1746(gp) # 20000486 <do_once_sinemode>
    30e2:	cb95                	beqz	a5,3116 <main+0x9f8>
    30e4:	40000737          	lui	a4,0x40000
    30e8:	40c75783          	lhu	a5,1036(a4) # 4000040c <_eusrstack+0x1fffb50c>
    30ec:	07c2                	slli	a5,a5,0x10
    30ee:	83c1                	srli	a5,a5,0x10
    30f0:	9bf9                	andi	a5,a5,-2
    30f2:	07c2                	slli	a5,a5,0x10
    30f4:	83c1                	srli	a5,a5,0x10
    30f6:	40f71623          	sh	a5,1036(a4)
    30fa:	120010ef          	jal	ra,421a <maskPhaseInterrupts>
    30fe:	400137b7          	lui	a5,0x40013
    3102:	c2079a23          	sh	zero,-972(a5) # 40012c34 <_eusrstack+0x2000dd34>
    3106:	c2079c23          	sh	zero,-968(a5)
    310a:	c2079e23          	sh	zero,-964(a5)
    310e:	4ac000ef          	jal	ra,35ba <allpwm>
    3112:	92018723          	sb	zero,-1746(gp) # 20000486 <do_once_sinemode>
    3116:	c44ff0ef          	jal	ra,255a <advanceincrement>
    311a:	85018683          	lb	a3,-1968(gp) # 200003a8 <motor_poles>
    311e:	6789                	lui	a5,0x2
    3120:	b5878793          	addi	a5,a5,-1192 # 1b58 <getBemfState+0x8>
    3124:	32a00713          	li	a4,810
    3128:	02d74733          	div	a4,a4,a3
    312c:	8c21d503          	lhu	a0,-1854(gp) # 2000041a <input>
    3130:	07800613          	li	a2,120
    3134:	03000593          	li	a1,48
    3138:	02d7c6b3          	div	a3,a5,a3
    313c:	cc4fe0ef          	jal	ra,1600 <map>
    3140:	80a19723          	sh	a0,-2034(gp) # 20000366 <step_delay>
    3144:	0542                	slli	a0,a0,0x10
    3146:	8141                	srli	a0,a0,0x10
    3148:	ce8fe0ef          	jal	ra,1630 <delayMicros>
    314c:	80e1d703          	lhu	a4,-2034(gp) # 20000366 <step_delay>
    3150:	25800793          	li	a5,600
    3154:	02e7c7b3          	div	a5,a5,a4
    3158:	8cf19623          	sh	a5,-1844(gp) # 20000424 <e_rpm>
    315c:	fdcff06f          	j	2938 <main+0x21a>
    3160:	4785                	li	a5,1
    3162:	92f18723          	sb	a5,-1746(gp) # 20000486 <do_once_sinemode>
    3166:	bf4ff0ef          	jal	ra,255a <advanceincrement>
    316a:	8c21d703          	lhu	a4,-1854(gp) # 2000041a <input>
    316e:	0c800793          	li	a5,200
    3172:	00e7f863          	bgeu	a5,a4,3182 <main+0xa64>
    3176:	05000793          	li	a5,80
    317a:	8c019b23          	sh	zero,-1834(gp) # 2000042e <phase_A_position>
    317e:	80f19723          	sh	a5,-2034(gp) # 20000366 <step_delay>
    3182:	80e1d503          	lhu	a0,-2034(gp) # 20000366 <step_delay>
    3186:	caafe0ef          	jal	ra,1630 <delayMicros>
    318a:	8d619783          	lh	a5,-1834(gp) # 2000042e <phase_A_position>
    318e:	fa079563          	bnez	a5,2938 <main+0x21a>
    3192:	4785                	li	a5,1
    3194:	8cf18d23          	sb	a5,-1830(gp) # 20000432 <running>
    3198:	8cf18f23          	sb	a5,-1826(gp) # 20000436 <old_routine>
    319c:	6789                	lui	a5,0x2
    319e:	32878793          	addi	a5,a5,808 # 2328 <tenKhzRoutine+0x4b4>
    31a2:	20000737          	lui	a4,0x20000
    31a6:	34f71c23          	sh	a5,856(a4) # 20000358 <commutation_interval>
    31aa:	8ef1ac23          	sw	a5,-1800(gp) # 20000450 <average_interval>
    31ae:	8ef1aa23          	sw	a5,-1804(gp) # 2000044c <last_average_interval>
    31b2:	8c0188a3          	sb	zero,-1839(gp) # 20000429 <stepper_sine>
    31b6:	40001737          	lui	a4,0x40001
    31ba:	82f71223          	sh	a5,-2012(a4) # 40000824 <_eusrstack+0x1fffb924>
    31be:	47a9                	li	a5,10
    31c0:	8af1ac23          	sw	a5,-1864(gp) # 20000410 <zero_crosses>
    31c4:	8e0180a3          	sb	zero,-1823(gp) # 20000439 <prop_brake_active>
    31c8:	8131c703          	lbu	a4,-2029(gp) # 2000036b <changeover_step>
    31cc:	200007b7          	lui	a5,0x20000
    31d0:	34e78d23          	sb	a4,858(a5) # 2000035a <step>
    31d4:	93218783          	lb	a5,-1742(gp) # 2000048a <stall_protection>
    31d8:	c789                	beqz	a5,31e2 <main+0xac4>
    31da:	8221d703          	lhu	a4,-2014(gp) # 2000037a <stall_protect_minimum_duty>
    31de:	82e19223          	sh	a4,-2012(gp) # 2000037c <minimum_duty_cycle>
    31e2:	9affe0ef          	jal	ra,1b90 <commutate>
    31e6:	40013537          	lui	a0,0x40013
    31ea:	4585                	li	a1,1
    31ec:	c0050513          	addi	a0,a0,-1024 # 40012c00 <_eusrstack+0x2000dd00>
    31f0:	1f0020ef          	jal	ra,53e0 <TIM_GenerateEvent>
    31f4:	f44ff06f          	j	2938 <main+0x21a>
    31f8:	93318783          	lb	a5,-1741(gp) # 2000048b <brake_on_stop>
    31fc:	4905                	li	s2,1
    31fe:	93218723          	sb	s2,-1746(gp) # 20000486 <do_once_sinemode>
    3202:	cba1                	beqz	a5,3252 <main+0xb34>
    3204:	81e1d603          	lhu	a2,-2018(gp) # 20000376 <TIMER1_MAX_ARR>
    3208:	84b18783          	lb	a5,-1973(gp) # 200003a3 <drag_brake_strength>
    320c:	fed60713          	addi	a4,a2,-19
    3210:	00160693          	addi	a3,a2,1
    3214:	0786                	slli	a5,a5,0x1
    3216:	97ba                	add	a5,a5,a4
    3218:	07c2                	slli	a5,a5,0x10
    321a:	83c1                	srli	a5,a5,0x10
    321c:	8af19923          	sh	a5,-1870(gp) # 2000040a <duty_cycle>
    3220:	8201d703          	lhu	a4,-2016(gp) # 20000378 <tim1_arr>
    3224:	02f707b3          	mul	a5,a4,a5
    3228:	02c7c7b3          	div	a5,a5,a2
    322c:	40f687b3          	sub	a5,a3,a5
    3230:	8cf19523          	sh	a5,-1846(gp) # 20000422 <adjusted_duty_cycle>
    3234:	2815                	jal	3268 <proportionalBrake>
    3236:	8ca1d703          	lhu	a4,-1846(gp) # 20000422 <adjusted_duty_cycle>
    323a:	400137b7          	lui	a5,0x40013
    323e:	c2e79a23          	sh	a4,-972(a5) # 40012c34 <_eusrstack+0x2000dd34>
    3242:	c2e79c23          	sh	a4,-968(a5)
    3246:	c2e79e23          	sh	a4,-964(a5)
    324a:	8f2180a3          	sb	s2,-1823(gp) # 20000439 <prop_brake_active>
    324e:	eeaff06f          	j	2938 <main+0x21a>
    3252:	400137b7          	lui	a5,0x40013
    3256:	c2079a23          	sh	zero,-972(a5) # 40012c34 <_eusrstack+0x2000dd34>
    325a:	c2079c23          	sh	zero,-968(a5)
    325e:	c2079e23          	sh	zero,-964(a5)
    3262:	24e9                	jal	352c <allOff>
    3264:	ed4ff06f          	j	2938 <main+0x21a>

00003268 <proportionalBrake>:
    3268:	40011737          	lui	a4,0x40011
    326c:	80070793          	addi	a5,a4,-2048 # 40010800 <_eusrstack+0x2000b900>
    3270:	43d4                	lw	a3,4(a5)
    3272:	767d                	lui	a2,0xfffff
    3274:	0ff60613          	addi	a2,a2,255 # fffff0ff <_eusrstack+0xdfffa1ff>
    3278:	8ef1                	and	a3,a3,a2
    327a:	c3d4                	sw	a3,4(a5)
    327c:	43d4                	lw	a3,4(a5)
    327e:	c0070713          	addi	a4,a4,-1024
    3282:	3006e693          	ori	a3,a3,768
    3286:	c3d4                	sw	a3,4(a5)
    3288:	40000693          	li	a3,1024
    328c:	cbd4                	sw	a3,20(a5)
    328e:	43d4                	lw	a3,4(a5)
    3290:	f0f6f693          	andi	a3,a3,-241
    3294:	c3d4                	sw	a3,4(a5)
    3296:	43d4                	lw	a3,4(a5)
    3298:	0306e693          	ori	a3,a3,48
    329c:	c3d4                	sw	a3,4(a5)
    329e:	20000693          	li	a3,512
    32a2:	cbd4                	sw	a3,20(a5)
    32a4:	43d4                	lw	a3,4(a5)
    32a6:	9ac1                	andi	a3,a3,-16
    32a8:	c3d4                	sw	a3,4(a5)
    32aa:	43d4                	lw	a3,4(a5)
    32ac:	0036e693          	ori	a3,a3,3
    32b0:	c3d4                	sw	a3,4(a5)
    32b2:	10000693          	li	a3,256
    32b6:	cbd4                	sw	a3,20(a5)
    32b8:	4314                	lw	a3,0(a4)
    32ba:	f0f6f693          	andi	a3,a3,-241
    32be:	c314                	sw	a3,0(a4)
    32c0:	4314                	lw	a3,0(a4)
    32c2:	0b06e693          	ori	a3,a3,176
    32c6:	c314                	sw	a3,0(a4)
    32c8:	4314                	lw	a3,0(a4)
    32ca:	9ac1                	andi	a3,a3,-16
    32cc:	c314                	sw	a3,0(a4)
    32ce:	4314                	lw	a3,0(a4)
    32d0:	00b6e693          	ori	a3,a3,11
    32d4:	c314                	sw	a3,0(a4)
    32d6:	4398                	lw	a4,0(a5)
    32d8:	b00006b7          	lui	a3,0xb0000
    32dc:	0712                	slli	a4,a4,0x4
    32de:	8311                	srli	a4,a4,0x4
    32e0:	c398                	sw	a4,0(a5)
    32e2:	4398                	lw	a4,0(a5)
    32e4:	8f55                	or	a4,a4,a3
    32e6:	c398                	sw	a4,0(a5)
    32e8:	8082                	ret

000032ea <phaseBPWM>:
    32ea:	85918703          	lb	a4,-1959(gp) # 200003b1 <comp_pwm>
    32ee:	400117b7          	lui	a5,0x40011
    32f2:	c0078793          	addi	a5,a5,-1024 # 40010c00 <_eusrstack+0x2000bd00>
    32f6:	e71d                	bnez	a4,3324 <phaseBPWM+0x3a>
    32f8:	4398                	lw	a4,0(a5)
    32fa:	9b41                	andi	a4,a4,-16
    32fc:	c398                	sw	a4,0(a5)
    32fe:	4398                	lw	a4,0(a5)
    3300:	00376713          	ori	a4,a4,3
    3304:	c398                	sw	a4,0(a5)
    3306:	4705                	li	a4,1
    3308:	cbd8                	sw	a4,20(a5)
    330a:	400117b7          	lui	a5,0x40011
    330e:	80078793          	addi	a5,a5,-2048 # 40010800 <_eusrstack+0x2000b900>
    3312:	43d8                	lw	a4,4(a5)
    3314:	f0f77713          	andi	a4,a4,-241
    3318:	c3d8                	sw	a4,4(a5)
    331a:	43d8                	lw	a4,4(a5)
    331c:	0b076713          	ori	a4,a4,176
    3320:	c3d8                	sw	a4,4(a5)
    3322:	8082                	ret
    3324:	4398                	lw	a4,0(a5)
    3326:	9b41                	andi	a4,a4,-16
    3328:	c398                	sw	a4,0(a5)
    332a:	4398                	lw	a4,0(a5)
    332c:	00b76713          	ori	a4,a4,11
    3330:	c398                	sw	a4,0(a5)
    3332:	bfe1                	j	330a <phaseBPWM+0x20>

00003334 <phaseBFLOAT>:
    3334:	400117b7          	lui	a5,0x40011
    3338:	c0078713          	addi	a4,a5,-1024 # 40010c00 <_eusrstack+0x2000bd00>
    333c:	4314                	lw	a3,0(a4)
    333e:	80078793          	addi	a5,a5,-2048
    3342:	9ac1                	andi	a3,a3,-16
    3344:	c314                	sw	a3,0(a4)
    3346:	4314                	lw	a3,0(a4)
    3348:	0036e693          	ori	a3,a3,3
    334c:	c314                	sw	a3,0(a4)
    334e:	4685                	li	a3,1
    3350:	cb54                	sw	a3,20(a4)
    3352:	43d8                	lw	a4,4(a5)
    3354:	f0f77713          	andi	a4,a4,-241
    3358:	c3d8                	sw	a4,4(a5)
    335a:	43d8                	lw	a4,4(a5)
    335c:	03076713          	ori	a4,a4,48
    3360:	c3d8                	sw	a4,4(a5)
    3362:	20000713          	li	a4,512
    3366:	cbd8                	sw	a4,20(a5)
    3368:	8082                	ret

0000336a <phaseBLOW>:
    336a:	400117b7          	lui	a5,0x40011
    336e:	c0078713          	addi	a4,a5,-1024 # 40010c00 <_eusrstack+0x2000bd00>
    3372:	4314                	lw	a3,0(a4)
    3374:	80078793          	addi	a5,a5,-2048
    3378:	9ac1                	andi	a3,a3,-16
    337a:	c314                	sw	a3,0(a4)
    337c:	4314                	lw	a3,0(a4)
    337e:	0036e693          	ori	a3,a3,3
    3382:	c314                	sw	a3,0(a4)
    3384:	4685                	li	a3,1
    3386:	cb14                	sw	a3,16(a4)
    3388:	43d8                	lw	a4,4(a5)
    338a:	f0f77713          	andi	a4,a4,-241
    338e:	c3d8                	sw	a4,4(a5)
    3390:	43d8                	lw	a4,4(a5)
    3392:	03076713          	ori	a4,a4,48
    3396:	c3d8                	sw	a4,4(a5)
    3398:	20000713          	li	a4,512
    339c:	cbd8                	sw	a4,20(a5)
    339e:	8082                	ret

000033a0 <phaseCPWM>:
    33a0:	85918703          	lb	a4,-1959(gp) # 200003b1 <comp_pwm>
    33a4:	400117b7          	lui	a5,0x40011
    33a8:	80078793          	addi	a5,a5,-2048 # 40010800 <_eusrstack+0x2000b900>
    33ac:	eb0d                	bnez	a4,33de <phaseCPWM+0x3e>
    33ae:	4398                	lw	a4,0(a5)
    33b0:	300006b7          	lui	a3,0x30000
    33b4:	0712                	slli	a4,a4,0x4
    33b6:	8311                	srli	a4,a4,0x4
    33b8:	c398                	sw	a4,0(a5)
    33ba:	4398                	lw	a4,0(a5)
    33bc:	8f55                	or	a4,a4,a3
    33be:	c398                	sw	a4,0(a5)
    33c0:	08000713          	li	a4,128
    33c4:	cbd8                	sw	a4,20(a5)
    33c6:	400117b7          	lui	a5,0x40011
    33ca:	80078793          	addi	a5,a5,-2048 # 40010800 <_eusrstack+0x2000b900>
    33ce:	43d8                	lw	a4,4(a5)
    33d0:	9b41                	andi	a4,a4,-16
    33d2:	c3d8                	sw	a4,4(a5)
    33d4:	43d8                	lw	a4,4(a5)
    33d6:	00b76713          	ori	a4,a4,11
    33da:	c3d8                	sw	a4,4(a5)
    33dc:	8082                	ret
    33de:	4398                	lw	a4,0(a5)
    33e0:	b00006b7          	lui	a3,0xb0000
    33e4:	0712                	slli	a4,a4,0x4
    33e6:	8311                	srli	a4,a4,0x4
    33e8:	c398                	sw	a4,0(a5)
    33ea:	4398                	lw	a4,0(a5)
    33ec:	8f55                	or	a4,a4,a3
    33ee:	c398                	sw	a4,0(a5)
    33f0:	bfd9                	j	33c6 <phaseCPWM+0x26>

000033f2 <phaseCFLOAT>:
    33f2:	400117b7          	lui	a5,0x40011
    33f6:	80078793          	addi	a5,a5,-2048 # 40010800 <_eusrstack+0x2000b900>
    33fa:	4398                	lw	a4,0(a5)
    33fc:	300006b7          	lui	a3,0x30000
    3400:	0712                	slli	a4,a4,0x4
    3402:	8311                	srli	a4,a4,0x4
    3404:	c398                	sw	a4,0(a5)
    3406:	4398                	lw	a4,0(a5)
    3408:	8f55                	or	a4,a4,a3
    340a:	c398                	sw	a4,0(a5)
    340c:	08000713          	li	a4,128
    3410:	cbd8                	sw	a4,20(a5)
    3412:	43d8                	lw	a4,4(a5)
    3414:	9b41                	andi	a4,a4,-16
    3416:	c3d8                	sw	a4,4(a5)
    3418:	43d8                	lw	a4,4(a5)
    341a:	00376713          	ori	a4,a4,3
    341e:	c3d8                	sw	a4,4(a5)
    3420:	10000713          	li	a4,256
    3424:	cbd8                	sw	a4,20(a5)
    3426:	8082                	ret

00003428 <phaseCLOW>:
    3428:	400117b7          	lui	a5,0x40011
    342c:	80078793          	addi	a5,a5,-2048 # 40010800 <_eusrstack+0x2000b900>
    3430:	4398                	lw	a4,0(a5)
    3432:	300006b7          	lui	a3,0x30000
    3436:	0712                	slli	a4,a4,0x4
    3438:	8311                	srli	a4,a4,0x4
    343a:	c398                	sw	a4,0(a5)
    343c:	4398                	lw	a4,0(a5)
    343e:	8f55                	or	a4,a4,a3
    3440:	c398                	sw	a4,0(a5)
    3442:	08000713          	li	a4,128
    3446:	cb98                	sw	a4,16(a5)
    3448:	43d8                	lw	a4,4(a5)
    344a:	9b41                	andi	a4,a4,-16
    344c:	c3d8                	sw	a4,4(a5)
    344e:	43d8                	lw	a4,4(a5)
    3450:	00376713          	ori	a4,a4,3
    3454:	c3d8                	sw	a4,4(a5)
    3456:	10000713          	li	a4,256
    345a:	cbd8                	sw	a4,20(a5)
    345c:	8082                	ret

0000345e <phaseAPWM>:
    345e:	85918703          	lb	a4,-1959(gp) # 200003b1 <comp_pwm>
    3462:	400117b7          	lui	a5,0x40011
    3466:	c0078793          	addi	a5,a5,-1024 # 40010c00 <_eusrstack+0x2000bd00>
    346a:	ef05                	bnez	a4,34a2 <phaseAPWM+0x44>
    346c:	4398                	lw	a4,0(a5)
    346e:	f0f77713          	andi	a4,a4,-241
    3472:	c398                	sw	a4,0(a5)
    3474:	4398                	lw	a4,0(a5)
    3476:	03076713          	ori	a4,a4,48
    347a:	c398                	sw	a4,0(a5)
    347c:	4709                	li	a4,2
    347e:	cbd8                	sw	a4,20(a5)
    3480:	400117b7          	lui	a5,0x40011
    3484:	80078793          	addi	a5,a5,-2048 # 40010800 <_eusrstack+0x2000b900>
    3488:	43d8                	lw	a4,4(a5)
    348a:	76fd                	lui	a3,0xfffff
    348c:	0ff68693          	addi	a3,a3,255 # fffff0ff <_eusrstack+0xdfffa1ff>
    3490:	8f75                	and	a4,a4,a3
    3492:	c3d8                	sw	a4,4(a5)
    3494:	43d8                	lw	a4,4(a5)
    3496:	6685                	lui	a3,0x1
    3498:	b0068693          	addi	a3,a3,-1280 # b00 <__stack_size+0x300>
    349c:	8f55                	or	a4,a4,a3
    349e:	c3d8                	sw	a4,4(a5)
    34a0:	8082                	ret
    34a2:	4398                	lw	a4,0(a5)
    34a4:	f0f77713          	andi	a4,a4,-241
    34a8:	c398                	sw	a4,0(a5)
    34aa:	4398                	lw	a4,0(a5)
    34ac:	0b076713          	ori	a4,a4,176
    34b0:	c398                	sw	a4,0(a5)
    34b2:	b7f9                	j	3480 <phaseAPWM+0x22>

000034b4 <phaseAFLOAT>:
    34b4:	400117b7          	lui	a5,0x40011
    34b8:	c0078713          	addi	a4,a5,-1024 # 40010c00 <_eusrstack+0x2000bd00>
    34bc:	4314                	lw	a3,0(a4)
    34be:	80078793          	addi	a5,a5,-2048
    34c2:	f0f6f693          	andi	a3,a3,-241
    34c6:	c314                	sw	a3,0(a4)
    34c8:	4314                	lw	a3,0(a4)
    34ca:	0306e693          	ori	a3,a3,48
    34ce:	c314                	sw	a3,0(a4)
    34d0:	4689                	li	a3,2
    34d2:	cb54                	sw	a3,20(a4)
    34d4:	43d8                	lw	a4,4(a5)
    34d6:	76fd                	lui	a3,0xfffff
    34d8:	0ff68693          	addi	a3,a3,255 # fffff0ff <_eusrstack+0xdfffa1ff>
    34dc:	8f75                	and	a4,a4,a3
    34de:	c3d8                	sw	a4,4(a5)
    34e0:	43d8                	lw	a4,4(a5)
    34e2:	30076713          	ori	a4,a4,768
    34e6:	c3d8                	sw	a4,4(a5)
    34e8:	40000713          	li	a4,1024
    34ec:	cbd8                	sw	a4,20(a5)
    34ee:	8082                	ret

000034f0 <phaseALOW>:
    34f0:	400117b7          	lui	a5,0x40011
    34f4:	c0078713          	addi	a4,a5,-1024 # 40010c00 <_eusrstack+0x2000bd00>
    34f8:	4314                	lw	a3,0(a4)
    34fa:	80078793          	addi	a5,a5,-2048
    34fe:	f0f6f693          	andi	a3,a3,-241
    3502:	c314                	sw	a3,0(a4)
    3504:	4314                	lw	a3,0(a4)
    3506:	0306e693          	ori	a3,a3,48
    350a:	c314                	sw	a3,0(a4)
    350c:	4689                	li	a3,2
    350e:	cb14                	sw	a3,16(a4)
    3510:	43d8                	lw	a4,4(a5)
    3512:	76fd                	lui	a3,0xfffff
    3514:	0ff68693          	addi	a3,a3,255 # fffff0ff <_eusrstack+0xdfffa1ff>
    3518:	8f75                	and	a4,a4,a3
    351a:	c3d8                	sw	a4,4(a5)
    351c:	43d8                	lw	a4,4(a5)
    351e:	30076713          	ori	a4,a4,768
    3522:	c3d8                	sw	a4,4(a5)
    3524:	40000713          	li	a4,1024
    3528:	cbd8                	sw	a4,20(a5)
    352a:	8082                	ret

0000352c <allOff>:
    352c:	cd1fd2ef          	jal	t0,11fc <__riscv_save_0>
    3530:	f85ff0ef          	jal	ra,34b4 <phaseAFLOAT>
    3534:	e01ff0ef          	jal	ra,3334 <phaseBFLOAT>
    3538:	ebbff0ef          	jal	ra,33f2 <phaseCFLOAT>
    353c:	ce5fd06f          	j	1220 <__riscv_restore_0>

00003540 <comStep>:
    3540:	157d                	addi	a0,a0,-1
    3542:	4795                	li	a5,5
    3544:	06a7e063          	bltu	a5,a0,35a4 <comStep+0x64>
    3548:	cb5fd2ef          	jal	t0,11fc <__riscv_save_0>
    354c:	6799                	lui	a5,0x6
    354e:	43878793          	addi	a5,a5,1080 # 6438 <gcr_encode_table+0x10>
    3552:	050a                	slli	a0,a0,0x2
    3554:	953e                	add	a0,a0,a5
    3556:	411c                	lw	a5,0(a0)
    3558:	8782                	jr	a5
    355a:	f05ff0ef          	jal	ra,345e <phaseAPWM>
    355e:	e0dff0ef          	jal	ra,336a <phaseBLOW>
    3562:	e91ff0ef          	jal	ra,33f2 <phaseCFLOAT>
    3566:	a039                	j	3574 <comStep+0x34>
    3568:	f4dff0ef          	jal	ra,34b4 <phaseAFLOAT>
    356c:	dffff0ef          	jal	ra,336a <phaseBLOW>
    3570:	e31ff0ef          	jal	ra,33a0 <phaseCPWM>
    3574:	cadfd06f          	j	1220 <__riscv_restore_0>
    3578:	f79ff0ef          	jal	ra,34f0 <phaseALOW>
    357c:	db9ff0ef          	jal	ra,3334 <phaseBFLOAT>
    3580:	bfc5                	j	3570 <comStep+0x30>
    3582:	f6fff0ef          	jal	ra,34f0 <phaseALOW>
    3586:	d65ff0ef          	jal	ra,32ea <phaseBPWM>
    358a:	bfe1                	j	3562 <comStep+0x22>
    358c:	f29ff0ef          	jal	ra,34b4 <phaseAFLOAT>
    3590:	d5bff0ef          	jal	ra,32ea <phaseBPWM>
    3594:	e95ff0ef          	jal	ra,3428 <phaseCLOW>
    3598:	bff1                	j	3574 <comStep+0x34>
    359a:	ec5ff0ef          	jal	ra,345e <phaseAPWM>
    359e:	d97ff0ef          	jal	ra,3334 <phaseBFLOAT>
    35a2:	bfcd                	j	3594 <comStep+0x54>
    35a4:	8082                	ret

000035a6 <fullBrake>:
    35a6:	c57fd2ef          	jal	t0,11fc <__riscv_save_0>
    35aa:	f47ff0ef          	jal	ra,34f0 <phaseALOW>
    35ae:	dbdff0ef          	jal	ra,336a <phaseBLOW>
    35b2:	e77ff0ef          	jal	ra,3428 <phaseCLOW>
    35b6:	c6bfd06f          	j	1220 <__riscv_restore_0>

000035ba <allpwm>:
    35ba:	c43fd2ef          	jal	t0,11fc <__riscv_save_0>
    35be:	ea1ff0ef          	jal	ra,345e <phaseAPWM>
    35c2:	d29ff0ef          	jal	ra,32ea <phaseBPWM>
    35c6:	ddbff0ef          	jal	ra,33a0 <phaseCPWM>
    35ca:	c57fd06f          	j	1220 <__riscv_restore_0>

000035ce <computeServoInput>:
    35ce:	c15fd2ef          	jal	t0,11e2 <__riscv_save_4>
    35d2:	af418793          	addi	a5,gp,-1292 # 2000064c <dma_buffer>
    35d6:	43c8                	lw	a0,4(a5)
    35d8:	439c                	lw	a5,0(a5)
    35da:	8d1d                	sub	a0,a0,a5
    35dc:	cdf50713          	addi	a4,a0,-801
    35e0:	57600793          	li	a5,1398
    35e4:	16e7e963          	bltu	a5,a4,3756 <computeServoInput+0x188>
    35e8:	9401c783          	lbu	a5,-1728(gp) # 20000498 <calibration_required>
    35ec:	10078a63          	beqz	a5,3700 <computeServoInput+0x132>
    35f0:	93e1c783          	lbu	a5,-1730(gp) # 20000496 <high_calibration_set>
    35f4:	af418493          	addi	s1,gp,-1292 # 2000064c <dma_buffer>
    35f8:	c7a1                	beqz	a5,3640 <computeServoInput+0x72>
    35fa:	409c                	lw	a5,0(s1)
    35fc:	40d8                	lw	a4,4(s1)
    35fe:	8f1d                	sub	a4,a4,a5
    3600:	4e100793          	li	a5,1249
    3604:	0ce7ff63          	bgeu	a5,a4,36e2 <computeServoInput+0x114>
    3608:	93a1c703          	lbu	a4,-1734(gp) # 20000492 <low_calibration_counts>
    360c:	04b00793          	li	a5,75
    3610:	06e7f363          	bgeu	a5,a4,3676 <computeServoInput+0xa8>
    3614:	8421d783          	lhu	a5,-1982(gp) # 2000039a <servo_low_threshold>
    3618:	94018023          	sb	zero,-1728(gp) # 20000498 <calibration_required>
    361c:	07e5                	addi	a5,a5,25
    361e:	07c2                	slli	a5,a5,0x10
    3620:	83c1                	srli	a5,a5,0x10
    3622:	84f19123          	sh	a5,-1982(gp) # 2000039a <servo_low_threshold>
    3626:	4709                	li	a4,2
    3628:	d1278793          	addi	a5,a5,-750
    362c:	02e7c7b3          	div	a5,a5,a4
    3630:	a4f18c23          	sb	a5,-1448(gp) # 200005b0 <eepromBuffer+0x20>
    3634:	cb0fe0ef          	jal	ra,1ae4 <saveEEpromSettings>
    3638:	92018d23          	sb	zero,-1734(gp) # 20000492 <low_calibration_counts>
    363c:	2bb5                	jal	3bb8 <playChangedTone>
    363e:	a825                	j	3676 <computeServoInput+0xa8>
    3640:	93f1c783          	lbu	a5,-1729(gp) # 20000497 <high_calibration_counts>
    3644:	e399                	bnez	a5,364a <computeServoInput+0x7c>
    3646:	92a19e23          	sh	a0,-1732(gp) # 20000494 <last_high_threshold>
    364a:	8401d583          	lhu	a1,-1984(gp) # 20000398 <servo_high_threshold>
    364e:	93c1d503          	lhu	a0,-1732(gp) # 20000494 <last_high_threshold>
    3652:	0785                	addi	a5,a5,1
    3654:	92f18fa3          	sb	a5,-1729(gp) # 20000497 <high_calibration_counts>
    3658:	fcbfd0ef          	jal	ra,1622 <getAbsDif>
    365c:	03200693          	li	a3,50
    3660:	02a6de63          	bge	a3,a0,369c <computeServoInput+0xce>
    3664:	94018023          	sb	zero,-1728(gp) # 20000498 <calibration_required>
    3668:	8401d783          	lhu	a5,-1984(gp) # 20000398 <servo_high_threshold>
    366c:	92f19e23          	sh	a5,-1732(gp) # 20000494 <last_high_threshold>
    3670:	93e1c783          	lbu	a5,-1730(gp) # 20000496 <high_calibration_set>
    3674:	f3d9                	bnez	a5,35fa <computeServoInput+0x2c>
    3676:	8a019723          	sh	zero,-1874(gp) # 20000406 <signaltimeout>
    367a:	9441a703          	lw	a4,-1724(gp) # 2000049c <servorawinput>
    367e:	8c01d783          	lhu	a5,-1856(gp) # 20000418 <newinput>
    3682:	8641a683          	lw	a3,-1948(gp) # 200003bc <max_servo_deviation>
    3686:	40f705b3          	sub	a1,a4,a5
    368a:	0cb6d963          	bge	a3,a1,375c <computeServoInput+0x18e>
    368e:	97b6                	add	a5,a5,a3
    3690:	07c2                	slli	a5,a5,0x10
    3692:	83c1                	srli	a5,a5,0x10
    3694:	8cf19023          	sh	a5,-1856(gp) # 20000418 <newinput>
    3698:	b7ffd06f          	j	1216 <__riscv_restore_4>
    369c:	4098                	lw	a4,0(s1)
    369e:	40dc                	lw	a5,4(s1)
    36a0:	461d                	li	a2,7
    36a2:	8f99                	sub	a5,a5,a4
    36a4:	8401d703          	lhu	a4,-1984(gp) # 20000398 <servo_high_threshold>
    36a8:	02c70733          	mul	a4,a4,a2
    36ac:	97ba                	add	a5,a5,a4
    36ae:	838d                	srli	a5,a5,0x3
    36b0:	07c2                	slli	a5,a5,0x10
    36b2:	93f1c703          	lbu	a4,-1729(gp) # 20000497 <high_calibration_counts>
    36b6:	83c1                	srli	a5,a5,0x10
    36b8:	84f19023          	sh	a5,-1984(gp) # 20000398 <servo_high_threshold>
    36bc:	fae6f6e3          	bgeu	a3,a4,3668 <computeServoInput+0x9a>
    36c0:	179d                	addi	a5,a5,-25
    36c2:	07c2                	slli	a5,a5,0x10
    36c4:	83c1                	srli	a5,a5,0x10
    36c6:	84f19023          	sh	a5,-1984(gp) # 20000398 <servo_high_threshold>
    36ca:	4709                	li	a4,2
    36cc:	92a78793          	addi	a5,a5,-1750
    36d0:	02e7c7b3          	div	a5,a5,a4
    36d4:	a4f18ca3          	sb	a5,-1447(gp) # 200005b1 <eepromBuffer+0x21>
    36d8:	4785                	li	a5,1
    36da:	92f18f23          	sb	a5,-1730(gp) # 20000496 <high_calibration_set>
    36de:	2151                	jal	3b62 <playDefaultTone>
    36e0:	b761                	j	3668 <computeServoInput+0x9a>
    36e2:	93a1c783          	lbu	a5,-1734(gp) # 20000492 <low_calibration_counts>
    36e6:	461d                	li	a2,7
    36e8:	0785                	addi	a5,a5,1
    36ea:	92f18d23          	sb	a5,-1734(gp) # 20000492 <low_calibration_counts>
    36ee:	8421d783          	lhu	a5,-1982(gp) # 2000039a <servo_low_threshold>
    36f2:	02c787b3          	mul	a5,a5,a2
    36f6:	97ba                	add	a5,a5,a4
    36f8:	838d                	srli	a5,a5,0x3
    36fa:	84f19123          	sh	a5,-1982(gp) # 2000039a <servo_low_threshold>
    36fe:	b729                	j	3608 <computeServoInput+0x3a>
    3700:	93418783          	lb	a5,-1740(gp) # 2000048c <bi_direction>
    3704:	cb85                	beqz	a5,3734 <computeServoInput+0x166>
    3706:	83e1d583          	lhu	a1,-1986(gp) # 20000396 <servo_neutral>
    370a:	00a5ed63          	bltu	a1,a0,3724 <computeServoInput+0x156>
    370e:	862e                	mv	a2,a1
    3710:	8421d583          	lhu	a1,-1982(gp) # 2000039a <servo_low_threshold>
    3714:	3e800713          	li	a4,1000
    3718:	4681                	li	a3,0
    371a:	ee7fd0ef          	jal	ra,1600 <map>
    371e:	94a1a223          	sw	a0,-1724(gp) # 2000049c <servorawinput>
    3722:	bf91                	j	3676 <computeServoInput+0xa8>
    3724:	8401d603          	lhu	a2,-1984(gp) # 20000398 <servo_high_threshold>
    3728:	7d000713          	li	a4,2000
    372c:	3e900693          	li	a3,1001
    3730:	0585                	addi	a1,a1,1
    3732:	b7e5                	j	371a <computeServoInput+0x14c>
    3734:	8401d603          	lhu	a2,-1984(gp) # 20000398 <servo_high_threshold>
    3738:	8421d583          	lhu	a1,-1982(gp) # 2000039a <servo_low_threshold>
    373c:	7ff00713          	li	a4,2047
    3740:	02f00693          	li	a3,47
    3744:	ebdfd0ef          	jal	ra,1600 <map>
    3748:	02f00793          	li	a5,47
    374c:	fcf519e3          	bne	a0,a5,371e <computeServoInput+0x150>
    3750:	9401a223          	sw	zero,-1724(gp) # 2000049c <servorawinput>
    3754:	b70d                	j	3676 <computeServoInput+0xa8>
    3756:	8c019223          	sh	zero,-1852(gp) # 2000041c <zero_input_count>
    375a:	b705                	j	367a <computeServoInput+0xac>
    375c:	40e785b3          	sub	a1,a5,a4
    3760:	00b6d463          	bge	a3,a1,3768 <computeServoInput+0x19a>
    3764:	8f95                	sub	a5,a5,a3
    3766:	b72d                	j	3690 <computeServoInput+0xc2>
    3768:	01071793          	slli	a5,a4,0x10
    376c:	b71d                	j	3692 <computeServoInput+0xc4>

0000376e <transfercomplete>:
    376e:	a8ffd2ef          	jal	t0,11fc <__riscv_save_0>
    3772:	8c618783          	lb	a5,-1850(gp) # 2000041e <armed>
    3776:	c395                	beqz	a5,379a <transfercomplete+0x2c>
    3778:	8e018783          	lb	a5,-1824(gp) # 20000438 <dshot_telemetry>
    377c:	cf99                	beqz	a5,379a <transfercomplete+0x2c>
    377e:	95818783          	lb	a5,-1704(gp) # 200004b0 <out_put>
    3782:	c781                	beqz	a5,378a <transfercomplete+0x1c>
    3784:	6f8000ef          	jal	ra,3e7c <receiveDshotDma>
    3788:	a039                	j	3796 <transfercomplete+0x28>
    378a:	77e000ef          	jal	ra,3f08 <sendDshotDma>
    378e:	d61fd0ef          	jal	ra,14ee <make_dshot_package>
    3792:	aabfd0ef          	jal	ra,123c <computeDshotDMA>
    3796:	a8bfd06f          	j	1220 <__riscv_restore_0>
    379a:	8be18783          	lb	a5,-1858(gp) # 20000416 <inputSet>
    379e:	e781                	bnez	a5,37a6 <transfercomplete+0x38>
    37a0:	05b000ef          	jal	ra,3ffa <detectInput>
    37a4:	b7c5                	j	3784 <transfercomplete+0x16>
    37a6:	4705                	li	a4,1
    37a8:	fee797e3          	bne	a5,a4,3796 <transfercomplete+0x28>
    37ac:	8e018703          	lb	a4,-1824(gp) # 20000438 <dshot_telemetry>
    37b0:	cf01                	beqz	a4,37c8 <transfercomplete+0x5a>
    37b2:	95818783          	lb	a5,-1704(gp) # 200004b0 <out_put>
    37b6:	c791                	beqz	a5,37c2 <transfercomplete+0x54>
    37b8:	d37fd0ef          	jal	ra,14ee <make_dshot_package>
    37bc:	a81fd0ef          	jal	ra,123c <computeDshotDMA>
    37c0:	b7d1                	j	3784 <transfercomplete+0x16>
    37c2:	746000ef          	jal	ra,3f08 <sendDshotDma>
    37c6:	bfc1                	j	3796 <transfercomplete+0x28>
    37c8:	8bd18703          	lb	a4,-1859(gp) # 20000415 <dshot>
    37cc:	00f71663          	bne	a4,a5,37d8 <transfercomplete+0x6a>
    37d0:	a6dfd0ef          	jal	ra,123c <computeDshotDMA>
    37d4:	6a8000ef          	jal	ra,3e7c <receiveDshotDma>
    37d8:	8bc18703          	lb	a4,-1860(gp) # 20000414 <servoPwm>
    37dc:	4785                	li	a5,1
    37de:	02f71c63          	bne	a4,a5,3816 <transfercomplete+0xa8>
    37e2:	400117b7          	lui	a5,0x40011
    37e6:	80078793          	addi	a5,a5,-2048 # 40010800 <_eusrstack+0x2000b900>
    37ea:	479c                	lw	a5,8(a5)
    37ec:	8b85                	andi	a5,a5,1
    37ee:	e399                	bnez	a5,37f4 <transfercomplete+0x86>
    37f0:	ddfff0ef          	jal	ra,35ce <computeServoInput>
    37f4:	40000737          	lui	a4,0x40000
    37f8:	331e                	lhu	a5,32(a4)
    37fa:	07c2                	slli	a5,a5,0x10
    37fc:	83c1                	srli	a5,a5,0x10
    37fe:	9bf1                	andi	a5,a5,-4
    3800:	0017e793          	ori	a5,a5,1
    3804:	b31e                	sh	a5,32(a4)
    3806:	676000ef          	jal	ra,3e7c <receiveDshotDma>
    380a:	40020737          	lui	a4,0x40020
    380e:	4f3c                	lw	a5,88(a4)
    3810:	0047e793          	ori	a5,a5,4
    3814:	cf3c                	sw	a5,88(a4)
    3816:	8c618783          	lb	a5,-1850(gp) # 2000041e <armed>
    381a:	ffb5                	bnez	a5,3796 <transfercomplete+0x28>
    381c:	8dc1d503          	lhu	a0,-1828(gp) # 20000434 <adjusted_input>
    3820:	ed09                	bnez	a0,383a <transfercomplete+0xcc>
    3822:	9401c703          	lbu	a4,-1728(gp) # 20000498 <calibration_required>
    3826:	e719                	bnez	a4,3834 <transfercomplete+0xc6>
    3828:	8c41d703          	lhu	a4,-1852(gp) # 2000041c <zero_input_count>
    382c:	0705                	addi	a4,a4,1 # 40020001 <_eusrstack+0x2001b101>
    382e:	8ce19223          	sh	a4,-1852(gp) # 2000041c <zero_input_count>
    3832:	b795                	j	3796 <transfercomplete+0x28>
    3834:	8c019223          	sh	zero,-1852(gp) # 2000041c <zero_input_count>
    3838:	bfb9                	j	3796 <transfercomplete+0x28>
    383a:	8c019223          	sh	zero,-1852(gp) # 2000041c <zero_input_count>
    383e:	5dc00793          	li	a5,1500
    3842:	f4a7fae3          	bgeu	a5,a0,3796 <transfercomplete+0x28>
    3846:	9381d583          	lhu	a1,-1736(gp) # 20000490 <last_input>
    384a:	dd9fd0ef          	jal	ra,1622 <getAbsDif>
    384e:	03200713          	li	a4,50
    3852:	00a75963          	bge	a4,a0,3864 <transfercomplete+0xf6>
    3856:	940180a3          	sb	zero,-1727(gp) # 20000499 <enter_calibration_count>
    385a:	8dc1d783          	lhu	a5,-1828(gp) # 20000434 <adjusted_input>
    385e:	92f19c23          	sh	a5,-1736(gp) # 20000490 <last_input>
    3862:	bf15                	j	3796 <transfercomplete+0x28>
    3864:	9411c783          	lbu	a5,-1727(gp) # 20000499 <enter_calibration_count>
    3868:	0785                	addi	a5,a5,1
    386a:	0ff7f793          	zext.b	a5,a5
    386e:	94f180a3          	sb	a5,-1727(gp) # 20000499 <enter_calibration_count>
    3872:	fef774e3          	bgeu	a4,a5,385a <transfercomplete+0xec>
    3876:	93e1c783          	lbu	a5,-1730(gp) # 20000496 <high_calibration_set>
    387a:	f3e5                	bnez	a5,385a <transfercomplete+0xec>
    387c:	2e51                	jal	3c10 <playBeaconTune3>
    387e:	4705                	li	a4,1
    3880:	94e18023          	sb	a4,-1728(gp) # 20000498 <calibration_required>
    3884:	bfc9                	j	3856 <transfercomplete+0xe8>

00003886 <setVolume>:
    3886:	472d                	li	a4,11
    3888:	87aa                	mv	a5,a0
    388a:	00a77363          	bgeu	a4,a0,3890 <setVolume+0xa>
    388e:	47ad                	li	a5,11
    3890:	0786                	slli	a5,a5,0x1
    3892:	94f18423          	sb	a5,-1720(gp) # 200004a0 <beep_volume>
    3896:	8082                	ret

00003898 <setCaptureCompare>:
    3898:	9481c703          	lbu	a4,-1720(gp) # 200004a0 <beep_volume>
    389c:	400137b7          	lui	a5,0x40013
    38a0:	c2e79a23          	sh	a4,-972(a5) # 40012c34 <_eusrstack+0x2000dd34>
    38a4:	c2e79c23          	sh	a4,-968(a5)
    38a8:	c2e79e23          	sh	a4,-964(a5)
    38ac:	8082                	ret

000038ae <playBJNote>:
    38ae:	00494737          	lui	a4,0x494
    38b2:	e0070713          	addi	a4,a4,-512 # 493e00 <_data_lma+0x48d808>
    38b6:	02a74733          	div	a4,a4,a0
    38ba:	400136b7          	lui	a3,0x40013
    38be:	47a9                	li	a5,10
    38c0:	c2f69423          	sh	a5,-984(a3) # 40012c28 <_eusrstack+0x2000dd28>
    38c4:	852e                	mv	a0,a1
    38c6:	01071793          	slli	a5,a4,0x10
    38ca:	83c1                	srli	a5,a5,0x10
    38cc:	c2f69623          	sh	a5,-980(a3)
    38d0:	9481c783          	lbu	a5,-1720(gp) # 200004a0 <beep_volume>
    38d4:	0742                	slli	a4,a4,0x10
    38d6:	8341                	srli	a4,a4,0x10
    38d8:	02e787b3          	mul	a5,a5,a4
    38dc:	7cf00713          	li	a4,1999
    38e0:	02e7c7b3          	div	a5,a5,a4
    38e4:	07c2                	slli	a5,a5,0x10
    38e6:	83c1                	srli	a5,a5,0x10
    38e8:	c2f69a23          	sh	a5,-972(a3)
    38ec:	c2f69c23          	sh	a5,-968(a3)
    38f0:	c2f69e23          	sh	a5,-964(a3)
    38f4:	d4bfd06f          	j	163e <delayMillis>

000038f8 <playBlueJayTune>:
    38f8:	8ddfd2ef          	jal	t0,11d4 <__riscv_save_10>
    38fc:	450d                	li	a0,3
    38fe:	c43ff0ef          	jal	ra,3540 <comStep>
    3902:	88c1ab83          	lw	s7,-1908(gp) # 200003e4 <SystemCoreClock+0x18>
    3906:	a3818913          	addi	s2,gp,-1480 # 20000590 <eepromBuffer>
    390a:	6985                	lui	s3,0x1
    390c:	00989a37          	lui	s4,0x989
    3910:	07c90b13          	addi	s6,s2,124
    3914:	4401                	li	s0,0
    3916:	fa098993          	addi	s3,s3,-96 # fa0 <__stack_size+0x7a0>
    391a:	680a0a13          	addi	s4,s4,1664 # 989680 <_data_lma+0x983088>
    391e:	64e010ef          	jal	ra,4f6c <IWDG_ReloadCounter>
    3922:	03494503          	lbu	a0,52(s2)
    3926:	8a019723          	sh	zero,-1874(gp) # 20000406 <signaltimeout>
    392a:	0ff00793          	li	a5,255
    392e:	02f51863          	bne	a0,a5,395e <playBlueJayTune+0x66>
    3932:	0405                	addi	s0,s0,1
    3934:	0ff47413          	zext.b	s0,s0
    3938:	0909                	addi	s2,s2,2
    393a:	ff6912e3          	bne	s2,s6,391e <playBlueJayTune+0x26>
    393e:	befff0ef          	jal	ra,352c <allOff>
    3942:	400137b7          	lui	a5,0x40013
    3946:	c2079423          	sh	zero,-984(a5) # 40012c28 <_eusrstack+0x2000dd28>
    394a:	81e1d703          	lhu	a4,-2018(gp) # 20000376 <TIMER1_MAX_ARR>
    394e:	c2e79623          	sh	a4,-980(a5)
    3952:	8a019723          	sh	zero,-1874(gp) # 20000406 <signaltimeout>
    3956:	616010ef          	jal	ra,4f6c <IWDG_ReloadCounter>
    395a:	8b3fd06f          	j	120c <__riscv_restore_10>
    395e:	03594483          	lbu	s1,53(s2)
    3962:	e485                	bnez	s1,398a <playBlueJayTune+0x92>
    3964:	400137b7          	lui	a5,0x40013
    3968:	c2079a23          	sh	zero,-972(a5) # 40012c34 <_eusrstack+0x2000dd34>
    396c:	c2079c23          	sh	zero,-968(a5)
    3970:	c2079e23          	sh	zero,-964(a5)
    3974:	0fe00793          	li	a5,254
    3978:	02f40433          	mul	s0,s0,a5
    397c:	9522                	add	a0,a0,s0
    397e:	0542                	slli	a0,a0,0x10
    3980:	8141                	srli	a0,a0,0x10
    3982:	cbdfd0ef          	jal	ra,163e <delayMillis>
    3986:	4401                	li	s0,0
    3988:	bf45                	j	3938 <playBlueJayTune+0x40>
    398a:	0f700793          	li	a5,247
    398e:	02f484b3          	mul	s1,s1,a5
    3992:	0fe00793          	li	a5,254
    3996:	94ce                	add	s1,s1,s3
    3998:	029a44b3          	div	s1,s4,s1
    399c:	02f40433          	mul	s0,s0,a5
    39a0:	04c2                	slli	s1,s1,0x10
    39a2:	80c1                	srli	s1,s1,0x10
    39a4:	9522                	add	a0,a0,s0
    39a6:	03d020ef          	jal	ra,61e2 <__floatsisf>
    39aa:	842a                	mv	s0,a0
    39ac:	8526                	mv	a0,s1
    39ae:	101020ef          	jal	ra,62ae <__floatunsisf>
    39b2:	85aa                	mv	a1,a0
    39b4:	855e                	mv	a0,s7
    39b6:	08e020ef          	jal	ra,5a44 <__divsf3>
    39ba:	85aa                	mv	a1,a0
    39bc:	8522                	mv	a0,s0
    39be:	49a020ef          	jal	ra,5e58 <__mulsf3>
    39c2:	7ce020ef          	jal	ra,6190 <__fixunssfsi>
    39c6:	01051593          	slli	a1,a0,0x10
    39ca:	81c1                	srli	a1,a1,0x10
    39cc:	8526                	mv	a0,s1
    39ce:	ee1ff0ef          	jal	ra,38ae <playBJNote>
    39d2:	bf55                	j	3986 <playBlueJayTune+0x8e>

000039d4 <playStartupTune>:
    39d4:	829fd2ef          	jal	t0,11fc <__riscv_save_0>
    39d8:	6789                	lui	a5,0x2
    39da:	80078793          	addi	a5,a5,-2048 # 1800 <loadEEpromSettings+0xd4>
    39de:	80079073          	csrw	0x800,a5
    39e2:	080087b7          	lui	a5,0x8008
    39e6:	c307c703          	lbu	a4,-976(a5) # 8007c30 <_data_lma+0x8001638>
    39ea:	03900793          	li	a5,57
    39ee:	02f70163          	beq	a4,a5,3a10 <playStartupTune+0x3c>
    39f2:	f07ff0ef          	jal	ra,38f8 <playBlueJayTune>
    39f6:	81e1d703          	lhu	a4,-2018(gp) # 20000376 <TIMER1_MAX_ARR>
    39fa:	400137b7          	lui	a5,0x40013
    39fe:	c2e79623          	sh	a4,-980(a5) # 40012c2c <_eusrstack+0x2000dd2c>
    3a02:	6789                	lui	a5,0x2
    3a04:	88878793          	addi	a5,a5,-1912 # 1888 <loadEEpromSettings+0x15c>
    3a08:	80079073          	csrw	0x800,a5
    3a0c:	815fd06f          	j	1220 <__riscv_restore_0>
    3a10:	40013437          	lui	s0,0x40013
    3a14:	7cf00793          	li	a5,1999
    3a18:	c2f41623          	sh	a5,-980(s0) # 40012c2c <_eusrstack+0x2000dd2c>
    3a1c:	e7dff0ef          	jal	ra,3898 <setCaptureCompare>
    3a20:	450d                	li	a0,3
    3a22:	b1fff0ef          	jal	ra,3540 <comStep>
    3a26:	03700793          	li	a5,55
    3a2a:	c2f41423          	sh	a5,-984(s0)
    3a2e:	0c800513          	li	a0,200
    3a32:	c0dfd0ef          	jal	ra,163e <delayMillis>
    3a36:	4515                	li	a0,5
    3a38:	b09ff0ef          	jal	ra,3540 <comStep>
    3a3c:	02800793          	li	a5,40
    3a40:	c2f41423          	sh	a5,-984(s0)
    3a44:	0c800513          	li	a0,200
    3a48:	bf7fd0ef          	jal	ra,163e <delayMillis>
    3a4c:	4519                	li	a0,6
    3a4e:	af3ff0ef          	jal	ra,3540 <comStep>
    3a52:	47e5                	li	a5,25
    3a54:	c2f41423          	sh	a5,-984(s0)
    3a58:	0c800513          	li	a0,200
    3a5c:	be3fd0ef          	jal	ra,163e <delayMillis>
    3a60:	acdff0ef          	jal	ra,352c <allOff>
    3a64:	c2041423          	sh	zero,-984(s0)
    3a68:	8a019723          	sh	zero,-1874(gp) # 20000406 <signaltimeout>
    3a6c:	c0040413          	addi	s0,s0,-1024
    3a70:	b759                	j	39f6 <playStartupTune+0x22>

00003a72 <playInputTune2>:
    3a72:	f8afd2ef          	jal	t0,11fc <__riscv_save_0>
    3a76:	40013437          	lui	s0,0x40013
    3a7a:	c0040413          	addi	s0,s0,-1024 # 40012c00 <_eusrstack+0x2000dd00>
    3a7e:	7cf00793          	li	a5,1999
    3a82:	6489                	lui	s1,0x2
    3a84:	b45e                	sh	a5,44(s0)
    3a86:	80048793          	addi	a5,s1,-2048 # 1800 <loadEEpromSettings+0xd4>
    3a8a:	80079073          	csrw	0x800,a5
    3a8e:	4de010ef          	jal	ra,4f6c <IWDG_ReloadCounter>
    3a92:	03c00793          	li	a5,60
    3a96:	b41e                	sh	a5,40(s0)
    3a98:	e01ff0ef          	jal	ra,3898 <setCaptureCompare>
    3a9c:	4505                	li	a0,1
    3a9e:	aa3ff0ef          	jal	ra,3540 <comStep>
    3aa2:	04b00513          	li	a0,75
    3aa6:	b99fd0ef          	jal	ra,163e <delayMillis>
    3aaa:	05000793          	li	a5,80
    3aae:	b41e                	sh	a5,40(s0)
    3ab0:	04b00513          	li	a0,75
    3ab4:	b8bfd0ef          	jal	ra,163e <delayMillis>
    3ab8:	05a00793          	li	a5,90
    3abc:	b41e                	sh	a5,40(s0)
    3abe:	4ae010ef          	jal	ra,4f6c <IWDG_ReloadCounter>
    3ac2:	04b00513          	li	a0,75
    3ac6:	b79fd0ef          	jal	ra,163e <delayMillis>
    3aca:	a63ff0ef          	jal	ra,352c <allOff>
    3ace:	02041423          	sh	zero,40(s0)
    3ad2:	8a019723          	sh	zero,-1874(gp) # 20000406 <signaltimeout>
    3ad6:	81e1d783          	lhu	a5,-2018(gp) # 20000376 <TIMER1_MAX_ARR>
    3ada:	88848493          	addi	s1,s1,-1912
    3ade:	b45e                	sh	a5,44(s0)
    3ae0:	80049073          	csrw	0x800,s1
    3ae4:	f3cfd06f          	j	1220 <__riscv_restore_0>

00003ae8 <playInputTune>:
    3ae8:	f14fd2ef          	jal	t0,11fc <__riscv_save_0>
    3aec:	6489                	lui	s1,0x2
    3aee:	80048793          	addi	a5,s1,-2048 # 1800 <loadEEpromSettings+0xd4>
    3af2:	80079073          	csrw	0x800,a5
    3af6:	40013437          	lui	s0,0x40013
    3afa:	7cf00793          	li	a5,1999
    3afe:	c2f41623          	sh	a5,-980(s0) # 40012c2c <_eusrstack+0x2000dd2c>
    3b02:	46a010ef          	jal	ra,4f6c <IWDG_ReloadCounter>
    3b06:	05000793          	li	a5,80
    3b0a:	c2f41423          	sh	a5,-984(s0)
    3b0e:	d8bff0ef          	jal	ra,3898 <setCaptureCompare>
    3b12:	450d                	li	a0,3
    3b14:	a2dff0ef          	jal	ra,3540 <comStep>
    3b18:	06400513          	li	a0,100
    3b1c:	b23fd0ef          	jal	ra,163e <delayMillis>
    3b20:	04600793          	li	a5,70
    3b24:	c2f41423          	sh	a5,-984(s0)
    3b28:	06400513          	li	a0,100
    3b2c:	b13fd0ef          	jal	ra,163e <delayMillis>
    3b30:	02800793          	li	a5,40
    3b34:	c2f41423          	sh	a5,-984(s0)
    3b38:	06400513          	li	a0,100
    3b3c:	b03fd0ef          	jal	ra,163e <delayMillis>
    3b40:	9edff0ef          	jal	ra,352c <allOff>
    3b44:	c2041423          	sh	zero,-984(s0)
    3b48:	8a019723          	sh	zero,-1874(gp) # 20000406 <signaltimeout>
    3b4c:	81e1d783          	lhu	a5,-2018(gp) # 20000376 <TIMER1_MAX_ARR>
    3b50:	c0040413          	addi	s0,s0,-1024
    3b54:	88848493          	addi	s1,s1,-1912
    3b58:	b45e                	sh	a5,44(s0)
    3b5a:	80049073          	csrw	0x800,s1
    3b5e:	ec2fd06f          	j	1220 <__riscv_restore_0>

00003b62 <playDefaultTone>:
    3b62:	e9afd2ef          	jal	t0,11fc <__riscv_save_0>
    3b66:	40013437          	lui	s0,0x40013
    3b6a:	7cf00793          	li	a5,1999
    3b6e:	c2f41623          	sh	a5,-980(s0) # 40012c2c <_eusrstack+0x2000dd2c>
    3b72:	03200793          	li	a5,50
    3b76:	c2f41423          	sh	a5,-984(s0)
    3b7a:	d1fff0ef          	jal	ra,3898 <setCaptureCompare>
    3b7e:	4509                	li	a0,2
    3b80:	9c1ff0ef          	jal	ra,3540 <comStep>
    3b84:	09600513          	li	a0,150
    3b88:	ab7fd0ef          	jal	ra,163e <delayMillis>
    3b8c:	3e0010ef          	jal	ra,4f6c <IWDG_ReloadCounter>
    3b90:	47f9                	li	a5,30
    3b92:	c2f41423          	sh	a5,-984(s0)
    3b96:	09600513          	li	a0,150
    3b9a:	aa5fd0ef          	jal	ra,163e <delayMillis>
    3b9e:	98fff0ef          	jal	ra,352c <allOff>
    3ba2:	c2041423          	sh	zero,-984(s0)
    3ba6:	8a019723          	sh	zero,-1874(gp) # 20000406 <signaltimeout>
    3baa:	81e1d783          	lhu	a5,-2018(gp) # 20000376 <TIMER1_MAX_ARR>
    3bae:	c0040413          	addi	s0,s0,-1024
    3bb2:	b45e                	sh	a5,44(s0)
    3bb4:	e6cfd06f          	j	1220 <__riscv_restore_0>

00003bb8 <playChangedTone>:
    3bb8:	e44fd2ef          	jal	t0,11fc <__riscv_save_0>
    3bbc:	40013437          	lui	s0,0x40013
    3bc0:	7cf00793          	li	a5,1999
    3bc4:	c2f41623          	sh	a5,-980(s0) # 40012c2c <_eusrstack+0x2000dd2c>
    3bc8:	02800793          	li	a5,40
    3bcc:	c2f41423          	sh	a5,-984(s0)
    3bd0:	cc9ff0ef          	jal	ra,3898 <setCaptureCompare>
    3bd4:	4509                	li	a0,2
    3bd6:	96bff0ef          	jal	ra,3540 <comStep>
    3bda:	09600513          	li	a0,150
    3bde:	a61fd0ef          	jal	ra,163e <delayMillis>
    3be2:	38a010ef          	jal	ra,4f6c <IWDG_ReloadCounter>
    3be6:	05000793          	li	a5,80
    3bea:	c2f41423          	sh	a5,-984(s0)
    3bee:	09600513          	li	a0,150
    3bf2:	a4dfd0ef          	jal	ra,163e <delayMillis>
    3bf6:	937ff0ef          	jal	ra,352c <allOff>
    3bfa:	c2041423          	sh	zero,-984(s0)
    3bfe:	8a019723          	sh	zero,-1874(gp) # 20000406 <signaltimeout>
    3c02:	81e1d783          	lhu	a5,-2018(gp) # 20000376 <TIMER1_MAX_ARR>
    3c06:	c0040413          	addi	s0,s0,-1024
    3c0a:	b45e                	sh	a5,44(s0)
    3c0c:	e14fd06f          	j	1220 <__riscv_restore_0>

00003c10 <playBeaconTune3>:
    3c10:	dd2fd2ef          	jal	t0,11e2 <__riscv_save_4>
    3c14:	400137b7          	lui	a5,0x40013
    3c18:	7cf00713          	li	a4,1999
    3c1c:	c2e79623          	sh	a4,-980(a5) # 40012c2c <_eusrstack+0x2000dd2c>
    3c20:	6789                	lui	a5,0x2
    3c22:	80078793          	addi	a5,a5,-2048 # 1800 <loadEEpromSettings+0xd4>
    3c26:	80079073          	csrw	0x800,a5
    3c2a:	07700413          	li	s0,119
    3c2e:	c6bff0ef          	jal	ra,3898 <setCaptureCompare>
    3c32:	4a51                	li	s4,20
    3c34:	400139b7          	lui	s3,0x40013
    3c38:	597d                	li	s2,-1
    3c3a:	332010ef          	jal	ra,4f6c <IWDG_ReloadCounter>
    3c3e:	03444533          	div	a0,s0,s4
    3c42:	c0098493          	addi	s1,s3,-1024 # 40012c00 <_eusrstack+0x2000dd00>
    3c46:	8fbff0ef          	jal	ra,3540 <comStep>
    3c4a:	40145793          	srai	a5,s0,0x1
    3c4e:	07a9                	addi	a5,a5,10
    3c50:	07c2                	slli	a5,a5,0x10
    3c52:	83c1                	srli	a5,a5,0x10
    3c54:	c2f99423          	sh	a5,-984(s3)
    3c58:	4529                	li	a0,10
    3c5a:	1479                	addi	s0,s0,-2
    3c5c:	9e3fd0ef          	jal	ra,163e <delayMillis>
    3c60:	fd241de3          	bne	s0,s2,3c3a <playBeaconTune3+0x2a>
    3c64:	8c9ff0ef          	jal	ra,352c <allOff>
    3c68:	c2099423          	sh	zero,-984(s3)
    3c6c:	8a019723          	sh	zero,-1874(gp) # 20000406 <signaltimeout>
    3c70:	81e1d783          	lhu	a5,-2018(gp) # 20000376 <TIMER1_MAX_ARR>
    3c74:	c2f99623          	sh	a5,-980(s3)
    3c78:	6789                	lui	a5,0x2
    3c7a:	88878793          	addi	a5,a5,-1912 # 1888 <loadEEpromSettings+0x15c>
    3c7e:	80079073          	csrw	0x800,a5
    3c82:	d94fd06f          	j	1216 <__riscv_restore_4>

00003c86 <ADC_DMA_Callback>:
    3c86:	94c18793          	addi	a5,gp,-1716 # 200004a4 <ADCDataDMA>
    3c8a:	23d6                	lhu	a3,4(a5)
    3c8c:	8ed19423          	sh	a3,-1816(gp) # 20000440 <ADC_raw_temp>
    3c90:	2396                	lhu	a3,0(a5)
    3c92:	8ed19323          	sh	a3,-1818(gp) # 2000043e <ADC_raw_volts>
    3c96:	23ba                	lhu	a4,2(a5)
    3c98:	8ee19223          	sh	a4,-1820(gp) # 2000043c <ADC_raw_current>
    3c9c:	8082                	ret

00003c9e <enableADC_DMA>:
    3c9e:	d5efd2ef          	jal	t0,11fc <__riscv_save_0>
    3ca2:	7179                	addi	sp,sp,-48
    3ca4:	02400613          	li	a2,36
    3ca8:	4581                	li	a1,0
    3caa:	0068                	addi	a0,sp,12
    3cac:	d80fd0ef          	jal	ra,122c <memset>
    3cb0:	400127b7          	lui	a5,0x40012
    3cb4:	44c78793          	addi	a5,a5,1100 # 4001244c <_eusrstack+0x2000d54c>
    3cb8:	c23e                	sw	a5,4(sp)
    3cba:	94c18793          	addi	a5,gp,-1716 # 200004a4 <ADCDataDMA>
    3cbe:	c43e                	sw	a5,8(sp)
    3cc0:	478d                	li	a5,3
    3cc2:	c83e                	sw	a5,16(sp)
    3cc4:	08000793          	li	a5,128
    3cc8:	cc3e                	sw	a5,24(sp)
    3cca:	10000793          	li	a5,256
    3cce:	ce3e                	sw	a5,28(sp)
    3cd0:	40000793          	li	a5,1024
    3cd4:	40020437          	lui	s0,0x40020
    3cd8:	d03e                	sw	a5,32(sp)
    3cda:	02000793          	li	a5,32
    3cde:	d23e                	sw	a5,36(sp)
    3ce0:	004c                	addi	a1,sp,4
    3ce2:	6785                	lui	a5,0x1
    3ce4:	00840513          	addi	a0,s0,8 # 40020008 <_eusrstack+0x2001b108>
    3ce8:	d43e                	sw	a5,40(sp)
    3cea:	6db000ef          	jal	ra,4bc4 <DMA_Init>
    3cee:	4605                	li	a2,1
    3cf0:	00840513          	addi	a0,s0,8
    3cf4:	45a9                	li	a1,10
    3cf6:	71b000ef          	jal	ra,4c10 <DMA_ITConfig>
    3cfa:	4585                	li	a1,1
    3cfc:	00840513          	addi	a0,s0,8
    3d00:	6fd000ef          	jal	ra,4bfc <DMA_Cmd>
    3d04:	e000e7b7          	lui	a5,0xe000e
    3d08:	fc000713          	li	a4,-64
    3d0c:	40e78da3          	sb	a4,1051(a5) # e000e41b <_eusrstack+0xc000951b>
    3d10:	08000737          	lui	a4,0x8000
    3d14:	10e7a023          	sw	a4,256(a5)
    3d18:	6145                	addi	sp,sp,48
    3d1a:	d06fd06f          	j	1220 <__riscv_restore_0>

00003d1e <activateADC>:
    3d1e:	cdefd2ef          	jal	t0,11fc <__riscv_save_0>
    3d22:	40012437          	lui	s0,0x40012
    3d26:	4585                	li	a1,1
    3d28:	40040513          	addi	a0,s0,1024 # 40012400 <_eusrstack+0x2000d500>
    3d2c:	533000ef          	jal	ra,4a5e <ADC_DMACmd>
    3d30:	4585                	li	a1,1
    3d32:	40040513          	addi	a0,s0,1024
    3d36:	519000ef          	jal	ra,4a4e <ADC_Cmd>
    3d3a:	4581                	li	a1,0
    3d3c:	40040513          	addi	a0,s0,1024
    3d40:	66d000ef          	jal	ra,4bac <ADC_BufferCmd>
    3d44:	40040513          	addi	a0,s0,1024
    3d48:	529000ef          	jal	ra,4a70 <ADC_ResetCalibration>
    3d4c:	40040493          	addi	s1,s0,1024
    3d50:	8526                	mv	a0,s1
    3d52:	529000ef          	jal	ra,4a7a <ADC_GetResetCalibrationStatus>
    3d56:	fd6d                	bnez	a0,3d50 <activateADC+0x32>
    3d58:	40040513          	addi	a0,s0,1024
    3d5c:	40012437          	lui	s0,0x40012
    3d60:	523000ef          	jal	ra,4a82 <ADC_StartCalibration>
    3d64:	40040493          	addi	s1,s0,1024 # 40012400 <_eusrstack+0x2000d500>
    3d68:	8526                	mv	a0,s1
    3d6a:	523000ef          	jal	ra,4a8c <ADC_GetCalibrationStatus>
    3d6e:	fd6d                	bnez	a0,3d68 <activateADC+0x4a>
    3d70:	4585                	li	a1,1
    3d72:	40040513          	addi	a0,s0,1024
    3d76:	637000ef          	jal	ra,4bac <ADC_BufferCmd>
    3d7a:	4505                	li	a0,1
    3d7c:	5e9000ef          	jal	ra,4b64 <ADC_TempSensorVrefintCmd>
    3d80:	ca0fd06f          	j	1220 <__riscv_restore_0>

00003d84 <ADCInit>:
    3d84:	c78fd2ef          	jal	t0,11fc <__riscv_save_0>
    3d88:	7179                	addi	sp,sp,-48
    3d8a:	02000613          	li	a2,32
    3d8e:	4581                	li	a1,0
    3d90:	0808                	addi	a0,sp,16
    3d92:	c9afd0ef          	jal	ra,122c <memset>
    3d96:	4585                	li	a1,1
    3d98:	20000513          	li	a0,512
    3d9c:	c202                	sw	zero,4(sp)
    3d9e:	c402                	sw	zero,8(sp)
    3da0:	c602                	sw	zero,12(sp)
    3da2:	216010ef          	jal	ra,4fb8 <RCC_APB2PeriphClockCmd>
    3da6:	4501                	li	a0,0
    3da8:	1e0010ef          	jal	ra,4f88 <RCC_ADCCLKConfig>
    3dac:	40011537          	lui	a0,0x40011
    3db0:	04200793          	li	a5,66
    3db4:	004c                	addi	a1,sp,4
    3db6:	80050513          	addi	a0,a0,-2048 # 40010800 <_eusrstack+0x2000b900>
    3dba:	40012437          	lui	s0,0x40012
    3dbe:	827c                	sh	a5,4(sp)
    3dc0:	c602                	sw	zero,12(sp)
    3dc2:	78b000ef          	jal	ra,4d4c <GPIO_Init>
    3dc6:	40040513          	addi	a0,s0,1024 # 40012400 <_eusrstack+0x2000d500>
    3dca:	3ef000ef          	jal	ra,49b8 <ADC_DeInit>
    3dce:	4785                	li	a5,1
    3dd0:	ca3e                	sw	a5,20(sp)
    3dd2:	000e07b7          	lui	a5,0xe0
    3dd6:	ce3e                	sw	a5,28(sp)
    3dd8:	080c                	addi	a1,sp,16
    3dda:	478d                	li	a5,3
    3ddc:	40040513          	addi	a0,s0,1024
    3de0:	02f10223          	sb	a5,36(sp)
    3de4:	c802                	sw	zero,16(sp)
    3de6:	cc02                	sw	zero,24(sp)
    3de8:	d002                	sw	zero,32(sp)
    3dea:	40f000ef          	jal	ra,49f8 <ADC_Init>
    3dee:	40040513          	addi	a0,s0,1024
    3df2:	4685                	li	a3,1
    3df4:	4605                	li	a2,1
    3df6:	4585                	li	a1,1
    3df8:	4b5000ef          	jal	ra,4aac <ADC_RegularChannelConfig>
    3dfc:	40040513          	addi	a0,s0,1024
    3e00:	4685                	li	a3,1
    3e02:	4609                	li	a2,2
    3e04:	4599                	li	a1,6
    3e06:	4a7000ef          	jal	ra,4aac <ADC_RegularChannelConfig>
    3e0a:	4685                	li	a3,1
    3e0c:	460d                	li	a2,3
    3e0e:	45c1                	li	a1,16
    3e10:	40040513          	addi	a0,s0,1024
    3e14:	499000ef          	jal	ra,4aac <ADC_RegularChannelConfig>
    3e18:	6145                	addi	sp,sp,48
    3e1a:	c06fd06f          	j	1220 <__riscv_restore_0>

00003e1e <changeToInput>:
    3e1e:	bdefd2ef          	jal	t0,11fc <__riscv_save_0>
    3e22:	4585                	li	a1,1
    3e24:	4505                	li	a0,1
    3e26:	1ec010ef          	jal	ra,5012 <RCC_APB1PeriphResetCmd>
    3e2a:	4581                	li	a1,0
    3e2c:	4505                	li	a0,1
    3e2e:	1e4010ef          	jal	ra,5012 <RCC_APB1PeriphResetCmd>
    3e32:	400007b7          	lui	a5,0x40000
    3e36:	02079023          	sh	zero,32(a5) # 40000020 <_eusrstack+0x1fffb120>
    3e3a:	8bc18703          	lb	a4,-1860(gp) # 20000414 <servoPwm>
    3e3e:	cb0d                	beqz	a4,3e70 <changeToInput+0x52>
    3e40:	4705                	li	a4,1
    3e42:	af9a                	sh	a4,24(a5)
    3e44:	8701c783          	lbu	a5,-1936(gp) # 200003c8 <ic_timer_prescaler>
    3e48:	40000737          	lui	a4,0x40000
    3e4c:	4585                	li	a1,1
    3e4e:	07e2                	slli	a5,a5,0x18
    3e50:	87e1                	srai	a5,a5,0x18
    3e52:	07c2                	slli	a5,a5,0x10
    3e54:	83c1                	srli	a5,a5,0x10
    3e56:	b71e                	sh	a5,40(a4)
    3e58:	57fd                	li	a5,-1
    3e5a:	b75e                	sh	a5,44(a4)
    3e5c:	00071823          	sh	zero,16(a4) # 40000010 <_eusrstack+0x1fffb110>
    3e60:	40000537          	lui	a0,0x40000
    3e64:	57c010ef          	jal	ra,53e0 <TIM_GenerateEvent>
    3e68:	94018c23          	sb	zero,-1704(gp) # 200004b0 <out_put>
    3e6c:	bb4fd06f          	j	1220 <__riscv_restore_0>
    3e70:	470d                	li	a4,3
    3e72:	af9a                	sh	a4,24(a5)
    3e74:	04000713          	li	a4,64
    3e78:	a79a                	sh	a4,8(a5)
    3e7a:	b7e9                	j	3e44 <changeToInput+0x26>

00003e7c <receiveDshotDma>:
    3e7c:	b80fd2ef          	jal	t0,11fc <__riscv_save_0>
    3e80:	f9fff0ef          	jal	ra,3e1e <changeToInput>
    3e84:	400206b7          	lui	a3,0x40020
    3e88:	af418793          	addi	a5,gp,-1292 # 2000064c <dma_buffer>
    3e8c:	d2fc                	sw	a5,100(a3)
    3e8e:	400007b7          	lui	a5,0x40000
    3e92:	03478613          	addi	a2,a5,52 # 40000034 <_eusrstack+0x1fffb134>
    3e96:	d2b0                	sw	a2,96(a3)
    3e98:	86c1a603          	lw	a2,-1940(gp) # 200003c4 <buffersize>
    3e9c:	6705                	lui	a4,0x1
    3e9e:	98b70713          	addi	a4,a4,-1653 # 98b <__stack_size+0x18b>
    3ea2:	cef0                	sw	a2,92(a3)
    3ea4:	ceb8                	sw	a4,88(a3)
    3ea6:	02079223          	sh	zero,36(a5)
    3eaa:	27da                	lhu	a4,12(a5)
    3eac:	20076713          	ori	a4,a4,512
    3eb0:	a7da                	sh	a4,12(a5)
    3eb2:	339a                	lhu	a4,32(a5)
    3eb4:	00176713          	ori	a4,a4,1
    3eb8:	b39a                	sh	a4,32(a5)
    3eba:	239a                	lhu	a4,0(a5)
    3ebc:	00176713          	ori	a4,a4,1
    3ec0:	a39a                	sh	a4,0(a5)
    3ec2:	b5efd06f          	j	1220 <__riscv_restore_0>

00003ec6 <changeToOutput>:
    3ec6:	b36fd2ef          	jal	t0,11fc <__riscv_save_0>
    3eca:	4585                	li	a1,1
    3ecc:	4505                	li	a0,1
    3ece:	144010ef          	jal	ra,5012 <RCC_APB1PeriphResetCmd>
    3ed2:	4581                	li	a1,0
    3ed4:	4505                	li	a0,1
    3ed6:	13c010ef          	jal	ra,5012 <RCC_APB1PeriphResetCmd>
    3eda:	400007b7          	lui	a5,0x40000
    3ede:	06000713          	li	a4,96
    3ee2:	af9a                	sh	a4,24(a5)
    3ee4:	470d                	li	a4,3
    3ee6:	b39a                	sh	a4,32(a5)
    3ee8:	96018703          	lb	a4,-1696(gp) # 200004b8 <output_timer_prescaler>
    3eec:	4585                	li	a1,1
    3eee:	40000537          	lui	a0,0x40000
    3ef2:	b79a                	sh	a4,40(a5)
    3ef4:	03d00713          	li	a4,61
    3ef8:	b7da                	sh	a4,44(a5)
    3efa:	4705                	li	a4,1
    3efc:	94e18c23          	sb	a4,-1704(gp) # 200004b0 <out_put>
    3f00:	4e0010ef          	jal	ra,53e0 <TIM_GenerateEvent>
    3f04:	b1cfd06f          	j	1220 <__riscv_restore_0>

00003f08 <sendDshotDma>:
    3f08:	af4fd2ef          	jal	t0,11fc <__riscv_save_0>
    3f0c:	fbbff0ef          	jal	ra,3ec6 <changeToOutput>
    3f10:	40020637          	lui	a2,0x40020
    3f14:	96418793          	addi	a5,gp,-1692 # 200004bc <gcr>
    3f18:	d27c                	sw	a5,100(a2)
    3f1a:	400007b7          	lui	a5,0x40000
    3f1e:	03c78693          	addi	a3,a5,60 # 4000003c <_eusrstack+0x1fffb13c>
    3f22:	d234                	sw	a3,96(a2)
    3f24:	9521c683          	lbu	a3,-1710(gp) # 200004aa <buffer_padding>
    3f28:	6705                	lui	a4,0x1
    3f2a:	99b70713          	addi	a4,a4,-1637 # 99b <__stack_size+0x19b>
    3f2e:	06dd                	addi	a3,a3,23 # 40020017 <_eusrstack+0x2001b117>
    3f30:	ce74                	sw	a3,92(a2)
    3f32:	ce38                	sw	a4,88(a2)
    3f34:	27da                	lhu	a4,12(a5)
    3f36:	20076713          	ori	a4,a4,512
    3f3a:	a7da                	sh	a4,12(a5)
    3f3c:	339a                	lhu	a4,32(a5)
    3f3e:	00176713          	ori	a4,a4,1
    3f42:	b39a                	sh	a4,32(a5)
    3f44:	239a                	lhu	a4,0(a5)
    3f46:	00176713          	ori	a4,a4,1
    3f4a:	a39a                	sh	a4,0(a5)
    3f4c:	ad4fd06f          	j	1220 <__riscv_restore_0>

00003f50 <checkDshot>:
    3f50:	95c1a703          	lw	a4,-1700(gp) # 200004b4 <smallestnumber>
    3f54:	4785                	li	a5,1
    3f56:	fff70693          	addi	a3,a4,-1
    3f5a:	02d7ec63          	bltu	a5,a3,3f92 <checkDshot+0x42>
    3f5e:	9541a683          	lw	a3,-1708(gp) # 200004ac <average_signal_pulse>
    3f62:	03100713          	li	a4,49
    3f66:	02d76563          	bltu	a4,a3,3f90 <checkDshot+0x40>
    3f6a:	86018823          	sb	zero,-1936(gp) # 200003c8 <ic_timer_prescaler>
    3f6e:	96018023          	sb	zero,-1696(gp) # 200004b8 <output_timer_prescaler>
    3f72:	02c00693          	li	a3,44
    3f76:	8af18ea3          	sb	a5,-1859(gp) # 20000415 <dshot>
    3f7a:	86d18423          	sb	a3,-1944(gp) # 200003c0 <buffer_divider>
    3f7e:	46a5                	li	a3,9
    3f80:	94d18923          	sb	a3,-1710(gp) # 200004aa <buffer_padding>
    3f84:	02000693          	li	a3,32
    3f88:	86d1a623          	sw	a3,-1940(gp) # 200003c4 <buffersize>
    3f8c:	8af18f23          	sb	a5,-1858(gp) # 20000416 <inputSet>
    3f90:	8082                	ret
    3f92:	1775                	addi	a4,a4,-3
    3f94:	4691                	li	a3,4
    3f96:	fee6ede3          	bltu	a3,a4,3f90 <checkDshot+0x40>
    3f9a:	9541a683          	lw	a3,-1708(gp) # 200004ac <average_signal_pulse>
    3f9e:	03100713          	li	a4,49
    3fa2:	fed767e3          	bltu	a4,a3,3f90 <checkDshot+0x40>
    3fa6:	8af18ea3          	sb	a5,-1859(gp) # 20000415 <dshot>
    3faa:	86f18823          	sb	a5,-1936(gp) # 200003c8 <ic_timer_prescaler>
    3fae:	96f18023          	sb	a5,-1696(gp) # 200004b8 <output_timer_prescaler>
    3fb2:	56fd                	li	a3,-1
    3fb4:	40000737          	lui	a4,0x40000
    3fb8:	b356                	sh	a3,36(a4)
    3fba:	02c00693          	li	a3,44
    3fbe:	86d18423          	sb	a3,-1944(gp) # 200003c0 <buffer_divider>
    3fc2:	469d                	li	a3,7
    3fc4:	bf75                	j	3f80 <checkDshot+0x30>

00003fc6 <checkServo>:
    3fc6:	95c1a703          	lw	a4,-1700(gp) # 200004b4 <smallestnumber>
    3fca:	6795                	lui	a5,0x5
    3fcc:	cf278793          	addi	a5,a5,-782 # 4cf2 <FLASH_ProgramPage_Fast+0xa>
    3fd0:	ed370713          	addi	a4,a4,-301 # 3ffffed3 <_eusrstack+0x1fffafd3>
    3fd4:	02e7e263          	bltu	a5,a4,3ff8 <checkServo+0x32>
    3fd8:	4785                	li	a5,1
    3fda:	02f00693          	li	a3,47
    3fde:	8af18e23          	sb	a5,-1860(gp) # 20000414 <servoPwm>
    3fe2:	86d18823          	sb	a3,-1936(gp) # 200003c8 <ic_timer_prescaler>
    3fe6:	02300693          	li	a3,35
    3fea:	80d19323          	sh	a3,-2042(gp) # 2000035e <armed_count_threshold>
    3fee:	4689                	li	a3,2
    3ff0:	86d1a623          	sw	a3,-1940(gp) # 200003c4 <buffersize>
    3ff4:	8af18f23          	sb	a5,-1858(gp) # 20000416 <inputSet>
    3ff8:	8082                	ret

00003ffa <detectInput>:
    3ffa:	a02fd2ef          	jal	t0,11fc <__riscv_save_0>
    3ffe:	af418693          	addi	a3,gp,-1292 # 2000064c <dma_buffer>
    4002:	6795                	lui	a5,0x5
    4004:	4294                	lw	a3,0(a3)
    4006:	e2078793          	addi	a5,a5,-480 # 4e20 <GPIO_Init+0xd4>
    400a:	af418713          	addi	a4,gp,-1292 # 2000064c <dma_buffer>
    400e:	94f1ae23          	sw	a5,-1700(gp) # 200004b4 <smallestnumber>
    4012:	9401aa23          	sw	zero,-1708(gp) # 200004ac <average_signal_pulse>
    4016:	07870e13          	addi	t3,a4,120
    401a:	4301                	li	t1,0
    401c:	4581                	li	a1,0
    401e:	4881                	li	a7,0
    4020:	4348                	lw	a0,4(a4)
    4022:	00d50a63          	beq	a0,a3,4036 <detectInput+0x3c>
    4026:	40d506b3          	sub	a3,a0,a3
    402a:	00f6f463          	bgeu	a3,a5,4032 <detectInput+0x38>
    402e:	87b6                	mv	a5,a3
    4030:	4885                	li	a7,1
    4032:	95b6                	add	a1,a1,a3
    4034:	4305                	li	t1,1
    4036:	0711                	addi	a4,a4,4
    4038:	86aa                	mv	a3,a0
    403a:	ffc713e3          	bne	a4,t3,4020 <detectInput+0x26>
    403e:	00030463          	beqz	t1,4046 <detectInput+0x4c>
    4042:	94b1aa23          	sw	a1,-1708(gp) # 200004ac <average_signal_pulse>
    4046:	00088463          	beqz	a7,404e <detectInput+0x54>
    404a:	94f1ae23          	sw	a5,-1700(gp) # 200004b4 <smallestnumber>
    404e:	9541a783          	lw	a5,-1708(gp) # 200004ac <average_signal_pulse>
    4052:	8bd18703          	lb	a4,-1859(gp) # 20000415 <dshot>
    4056:	8395                	srli	a5,a5,0x5
    4058:	94f1aa23          	sw	a5,-1708(gp) # 200004ac <average_signal_pulse>
    405c:	4785                	li	a5,1
    405e:	00f71463          	bne	a4,a5,4066 <detectInput+0x6c>
    4062:	eefff0ef          	jal	ra,3f50 <checkDshot>
    4066:	8bc18703          	lb	a4,-1860(gp) # 20000414 <servoPwm>
    406a:	4785                	li	a5,1
    406c:	00f71463          	bne	a4,a5,4074 <detectInput+0x7a>
    4070:	f57ff0ef          	jal	ra,3fc6 <checkServo>
    4074:	8bd1c783          	lbu	a5,-1859(gp) # 20000415 <dshot>
    4078:	8bc1c703          	lbu	a4,-1860(gp) # 20000414 <servoPwm>
    407c:	8fd9                	or	a5,a5,a4
    407e:	e789                	bnez	a5,4088 <detectInput+0x8e>
    4080:	ed1ff0ef          	jal	ra,3f50 <checkDshot>
    4084:	f43ff0ef          	jal	ra,3fc6 <checkServo>
    4088:	998fd06f          	j	1220 <__riscv_restore_0>

0000408c <NMI_Handler>:
    408c:	30200073          	mret

00004090 <HardFault_Handler>:
    4090:	400117b7          	lui	a5,0x40011
    4094:	80078793          	addi	a5,a5,-2048 # 40010800 <_eusrstack+0x2000b900>
    4098:	04000713          	li	a4,64
    409c:	cbd8                	sw	a4,20(a5)
    409e:	4398                	lw	a4,0(a5)
    40a0:	f10006b7          	lui	a3,0xf1000
    40a4:	16fd                	addi	a3,a3,-1 # f0ffffff <_eusrstack+0xd0ffb0ff>
    40a6:	8f75                	and	a4,a4,a3
    40a8:	c398                	sw	a4,0(a5)
    40aa:	4398                	lw	a4,0(a5)
    40ac:	030006b7          	lui	a3,0x3000
    40b0:	8f55                	or	a4,a4,a3
    40b2:	c398                	sw	a4,0(a5)
    40b4:	a001                	j	40b4 <HardFault_Handler+0x24>

000040b6 <DMA1_Channel1_IRQHandler>:
    40b6:	4509                	li	a0,2
    40b8:	383000ef          	jal	ra,4c3a <DMA_GetITStatus>
    40bc:	c511                	beqz	a0,40c8 <DMA1_Channel1_IRQHandler+0x12>
    40be:	4519                	li	a0,6
    40c0:	373000ef          	jal	ra,4c32 <DMA_ClearFlag>
    40c4:	bc3ff0ef          	jal	ra,3c86 <ADC_DMA_Callback>
    40c8:	4521                	li	a0,8
    40ca:	371000ef          	jal	ra,4c3a <DMA_GetITStatus>
    40ce:	c501                	beqz	a0,40d6 <DMA1_Channel1_IRQHandler+0x20>
    40d0:	4521                	li	a0,8
    40d2:	361000ef          	jal	ra,4c32 <DMA_ClearFlag>
    40d6:	30200073          	mret

000040da <DMA1_Channel5_IRQHandler>:
    40da:	400207b7          	lui	a5,0x40020
    40de:	439c                	lw	a5,0(a5)
    40e0:	1141                	addi	sp,sp,-16
    40e2:	00040737          	lui	a4,0x40
    40e6:	c622                	sw	s0,12(sp)
    40e8:	c426                	sw	s1,8(sp)
    40ea:	8ff9                	and	a5,a5,a4
    40ec:	cf89                	beqz	a5,4106 <DMA1_Channel5_IRQHandler+0x2c>
    40ee:	8bc18783          	lb	a5,-1860(gp) # 20000414 <servoPwm>
    40f2:	c789                	beqz	a5,40fc <DMA1_Channel5_IRQHandler+0x22>
    40f4:	400007b7          	lui	a5,0x40000
    40f8:	470d                	li	a4,3
    40fa:	b39a                	sh	a4,32(a5)
    40fc:	400207b7          	lui	a5,0x40020
    4100:	00040737          	lui	a4,0x40
    4104:	c3d8                	sw	a4,4(a5)
    4106:	40020437          	lui	s0,0x40020
    410a:	401c                	lw	a5,0(s0)
    410c:	000204b7          	lui	s1,0x20
    4110:	8fe5                	and	a5,a5,s1
    4112:	c799                	beqz	a5,4120 <DMA1_Channel5_IRQHandler+0x46>
    4114:	4c3c                	lw	a5,88(s0)
    4116:	9bf9                	andi	a5,a5,-2
    4118:	cc3c                	sw	a5,88(s0)
    411a:	e54ff0ef          	jal	ra,376e <transfercomplete>
    411e:	c044                	sw	s1,4(s0)
    4120:	400207b7          	lui	a5,0x40020
    4124:	439c                	lw	a5,0(a5)
    4126:	00080737          	lui	a4,0x80
    412a:	8ff9                	and	a5,a5,a4
    412c:	c789                	beqz	a5,4136 <DMA1_Channel5_IRQHandler+0x5c>
    412e:	00080537          	lui	a0,0x80
    4132:	301000ef          	jal	ra,4c32 <DMA_ClearFlag>
    4136:	4432                	lw	s0,12(sp)
    4138:	44a2                	lw	s1,8(sp)
    413a:	0141                	addi	sp,sp,16
    413c:	30200073          	mret

00004140 <DMA1_Channel4_IRQHandler>:
    4140:	1141                	addi	sp,sp,-16
    4142:	6509                	lui	a0,0x2
    4144:	c622                	sw	s0,12(sp)
    4146:	2f5000ef          	jal	ra,4c3a <DMA_GetITStatus>
    414a:	cd0d                	beqz	a0,4184 <DMA1_Channel4_IRQHandler+0x44>
    414c:	40014437          	lui	s0,0x40014
    4150:	4601                	li	a2,0
    4152:	08000593          	li	a1,128
    4156:	80040513          	addi	a0,s0,-2048 # 40013800 <_eusrstack+0x2000e900>
    415a:	570010ef          	jal	ra,56ca <USART_DMACmd>
    415e:	40020537          	lui	a0,0x40020
    4162:	04450513          	addi	a0,a0,68 # 40020044 <_eusrstack+0x2001b144>
    4166:	4581                	li	a1,0
    4168:	295000ef          	jal	ra,4bfc <DMA_Cmd>
    416c:	80c45783          	lhu	a5,-2036(s0)
    4170:	6509                	lui	a0,0x2
    4172:	07c2                	slli	a5,a5,0x10
    4174:	83c1                	srli	a5,a5,0x10
    4176:	9bcd                	andi	a5,a5,-13
    4178:	07c2                	slli	a5,a5,0x10
    417a:	83c1                	srli	a5,a5,0x10
    417c:	80f41623          	sh	a5,-2036(s0)
    4180:	2b3000ef          	jal	ra,4c32 <DMA_ClearFlag>
    4184:	6521                	lui	a0,0x8
    4186:	2b5000ef          	jal	ra,4c3a <DMA_GetITStatus>
    418a:	cd0d                	beqz	a0,41c4 <DMA1_Channel4_IRQHandler+0x84>
    418c:	40014437          	lui	s0,0x40014
    4190:	4601                	li	a2,0
    4192:	08000593          	li	a1,128
    4196:	80040513          	addi	a0,s0,-2048 # 40013800 <_eusrstack+0x2000e900>
    419a:	530010ef          	jal	ra,56ca <USART_DMACmd>
    419e:	80c45783          	lhu	a5,-2036(s0)
    41a2:	40020537          	lui	a0,0x40020
    41a6:	04450513          	addi	a0,a0,68 # 40020044 <_eusrstack+0x2001b144>
    41aa:	07c2                	slli	a5,a5,0x10
    41ac:	83c1                	srli	a5,a5,0x10
    41ae:	9bcd                	andi	a5,a5,-13
    41b0:	07c2                	slli	a5,a5,0x10
    41b2:	83c1                	srli	a5,a5,0x10
    41b4:	80f41623          	sh	a5,-2036(s0)
    41b8:	4581                	li	a1,0
    41ba:	243000ef          	jal	ra,4bfc <DMA_Cmd>
    41be:	6521                	lui	a0,0x8
    41c0:	273000ef          	jal	ra,4c32 <DMA_ClearFlag>
    41c4:	4432                	lw	s0,12(sp)
    41c6:	0141                	addi	sp,sp,16
    41c8:	30200073          	mret

000041cc <SysTick_Handler>:
    41cc:	e000f7b7          	lui	a5,0xe000f
    41d0:	0007a223          	sw	zero,4(a5) # e000f004 <_eusrstack+0xc000a104>
    41d4:	ca1fd0ef          	jal	ra,1e74 <tenKhzRoutine>
    41d8:	30200073          	mret

000041dc <EXTI2_IRQHandler>:
    41dc:	400107b7          	lui	a5,0x40010
    41e0:	40078793          	addi	a5,a5,1024 # 40010400 <_eusrstack+0x2000b500>
    41e4:	4711                	li	a4,4
    41e6:	cbd8                	sw	a4,20(a5)
    41e8:	b65fd0ef          	jal	ra,1d4c <interruptRoutine>
    41ec:	30200073          	mret

000041f0 <TIM3_IRQHandler>:
    41f0:	1141                	addi	sp,sp,-16
    41f2:	c622                	sw	s0,12(sp)
    41f4:	40000437          	lui	s0,0x40000
    41f8:	4585                	li	a1,1
    41fa:	40040513          	addi	a0,s0,1024 # 40000400 <_eusrstack+0x1fffb500>
    41fe:	4a8010ef          	jal	ra,56a6 <TIM_GetITStatus>
    4202:	c901                	beqz	a0,4212 <TIM3_IRQHandler+0x22>
    4204:	ad1fd0ef          	jal	ra,1cd4 <PeriodElapsedCallback>
    4208:	4585                	li	a1,1
    420a:	40040513          	addi	a0,s0,1024
    420e:	4b0010ef          	jal	ra,56be <TIM_ClearITPendingBit>
    4212:	4432                	lw	s0,12(sp)
    4214:	0141                	addi	sp,sp,16
    4216:	30200073          	mret

0000421a <maskPhaseInterrupts>:
    421a:	400107b7          	lui	a5,0x40010
    421e:	40078793          	addi	a5,a5,1024 # 40010400 <_eusrstack+0x2000b500>
    4222:	4398                	lw	a4,0(a5)
    4224:	9b6d                	andi	a4,a4,-5
    4226:	c398                	sw	a4,0(a5)
    4228:	4711                	li	a4,4
    422a:	cbd8                	sw	a4,20(a5)
    422c:	8082                	ret

0000422e <enableCompInterrupts>:
    422e:	400107b7          	lui	a5,0x40010
    4232:	40078793          	addi	a5,a5,1024 # 40010400 <_eusrstack+0x2000b500>
    4236:	4398                	lw	a4,0(a5)
    4238:	00476713          	ori	a4,a4,4
    423c:	c398                	sw	a4,0(a5)
    423e:	8082                	ret

00004240 <changeCompInput>:
    4240:	200007b7          	lui	a5,0x20000
    4244:	35a78783          	lb	a5,858(a5) # 2000035a <step>
    4248:	4705                	li	a4,1
    424a:	02e79263          	bne	a5,a4,426e <changeCompInput+0x2e>
    424e:	40024737          	lui	a4,0x40024
    4252:	80f72223          	sw	a5,-2044(a4) # 40023804 <_eusrstack+0x2001e904>
    4256:	81018703          	lb	a4,-2032(gp) # 20000368 <rising>
    425a:	400107b7          	lui	a5,0x40010
    425e:	40078793          	addi	a5,a5,1024 # 40010400 <_eusrstack+0x2000b500>
    4262:	c721                	beqz	a4,42aa <changeCompInput+0x6a>
    4264:	0007a423          	sw	zero,8(a5)
    4268:	4711                	li	a4,4
    426a:	c7d8                	sw	a4,12(a5)
    426c:	8082                	ret
    426e:	4691                	li	a3,4
    4270:	00d79763          	bne	a5,a3,427e <changeCompInput+0x3e>
    4274:	400247b7          	lui	a5,0x40024
    4278:	80e7a223          	sw	a4,-2044(a5) # 40023804 <_eusrstack+0x2001e904>
    427c:	bfe9                	j	4256 <changeCompInput+0x16>
    427e:	4709                	li	a4,2
    4280:	00e79763          	bne	a5,a4,428e <changeCompInput+0x4e>
    4284:	400247b7          	lui	a5,0x40024
    4288:	07000713          	li	a4,112
    428c:	b7f5                	j	4278 <changeCompInput+0x38>
    428e:	4715                	li	a4,5
    4290:	fee78ae3          	beq	a5,a4,4284 <changeCompInput+0x44>
    4294:	470d                	li	a4,3
    4296:	00e78563          	beq	a5,a4,42a0 <changeCompInput+0x60>
    429a:	4719                	li	a4,6
    429c:	fae79de3          	bne	a5,a4,4256 <changeCompInput+0x16>
    42a0:	400247b7          	lui	a5,0x40024
    42a4:	03000713          	li	a4,48
    42a8:	bfc1                	j	4278 <changeCompInput+0x38>
    42aa:	0007a623          	sw	zero,12(a5) # 4002400c <_eusrstack+0x2001f10c>
    42ae:	4711                	li	a4,4
    42b0:	c798                	sw	a4,8(a5)
    42b2:	8082                	ret

000042b4 <save_flash_nolib>:
    42b4:	f2ffc2ef          	jal	t0,11e2 <__riscv_save_4>
    42b8:	716d                	addi	sp,sp,-272
    42ba:	84aa                	mv	s1,a0
    42bc:	89ae                	mv	s3,a1
    42be:	8932                	mv	s2,a2
    42c0:	4581                	li	a1,0
    42c2:	08000613          	li	a2,128
    42c6:	0808                	addi	a0,sp,16
    42c8:	f65fc0ef          	jal	ra,122c <memset>
    42cc:	400227b7          	lui	a5,0x40022
    42d0:	47c0                	lw	s0,12(a5)
    42d2:	8805                	andi	s0,s0,1
    42d4:	fc75                	bnez	s0,42d0 <save_flash_nolib+0x1c>
    42d6:	456706b7          	lui	a3,0x45670
    42da:	12368693          	addi	a3,a3,291 # 45670123 <_eusrstack+0x2566b223>
    42de:	cdef9737          	lui	a4,0xcdef9
    42e2:	c3d4                	sw	a3,4(a5)
    42e4:	9ab70713          	addi	a4,a4,-1621 # cdef89ab <_eusrstack+0xadef3aab>
    42e8:	c3d8                	sw	a4,4(a5)
    42ea:	d3d4                	sw	a3,36(a5)
    42ec:	d3d8                	sw	a4,36(a5)
    42ee:	0ff97793          	zext.b	a5,s2
    42f2:	e781                	bnez	a5,42fa <save_flash_nolib+0x46>
    42f4:	854a                	mv	a0,s2
    42f6:	1c5000ef          	jal	ra,4cba <FLASH_ErasePage_Fast>
    42fa:	f0097793          	andi	a5,s2,-256
    42fe:	c63e                	sw	a5,12(sp)
    4300:	10000713          	li	a4,256
    4304:	47b2                	lw	a5,12(sp)
    4306:	97a2                	add	a5,a5,s0
    4308:	2396                	lhu	a3,0(a5)
    430a:	081c                	addi	a5,sp,16
    430c:	97a2                	add	a5,a5,s0
    430e:	a396                	sh	a3,0(a5)
    4310:	0409                	addi	s0,s0,2
    4312:	fee419e3          	bne	s0,a4,4304 <save_flash_nolib+0x50>
    4316:	4789                	li	a5,2
    4318:	02f9c9b3          	div	s3,s3,a5
    431c:	8526                	mv	a0,s1
    431e:	4681                	li	a3,0
    4320:	0136cb63          	blt	a3,s3,4336 <save_flash_nolib+0x82>
    4324:	4532                	lw	a0,12(sp)
    4326:	080c                	addi	a1,sp,16
    4328:	1c1000ef          	jal	ra,4ce8 <FLASH_ProgramPage_Fast>
    432c:	181000ef          	jal	ra,4cac <FLASH_Lock>
    4330:	6151                	addi	sp,sp,272
    4332:	ee5fc06f          	j	1216 <__riscv_restore_4>
    4336:	47b2                	lw	a5,12(sp)
    4338:	3118                	lbu	a4,1(a0)
    433a:	2110                	lbu	a2,0(a0)
    433c:	40f907b3          	sub	a5,s2,a5
    4340:	8385                	srli	a5,a5,0x1
    4342:	97b6                	add	a5,a5,a3
    4344:	0786                	slli	a5,a5,0x1
    4346:	11078793          	addi	a5,a5,272 # 40022110 <_eusrstack+0x2001d210>
    434a:	0722                	slli	a4,a4,0x8
    434c:	978a                	add	a5,a5,sp
    434e:	8f51                	or	a4,a4,a2
    4350:	f0e79023          	sh	a4,-256(a5)
    4354:	0685                	addi	a3,a3,1
    4356:	0509                	addi	a0,a0,2 # 8002 <_data_lma+0x1a0a>
    4358:	b7e1                	j	4320 <save_flash_nolib+0x6c>

0000435a <read_flash_bin>:
    435a:	4781                	li	a5,0
    435c:	00c7c363          	blt	a5,a2,4362 <read_flash_bin+0x8>
    4360:	8082                	ret
    4362:	00f58733          	add	a4,a1,a5
    4366:	2314                	lbu	a3,0(a4)
    4368:	00f50733          	add	a4,a0,a5
    436c:	0785                	addi	a5,a5,1
    436e:	a314                	sb	a3,0(a4)
    4370:	b7f5                	j	435c <read_flash_bin+0x2>

00004372 <initAfterJump>:
    4372:	8082                	ret

00004374 <ALL_COMP_Init>:
    4374:	e89fc2ef          	jal	t0,11fc <__riscv_save_0>
    4378:	1101                	addi	sp,sp,-32
    437a:	400114b7          	lui	s1,0x40011
    437e:	02000793          	li	a5,32
    4382:	004c                	addi	a1,sp,4
    4384:	80048513          	addi	a0,s1,-2048 # 40010800 <_eusrstack+0x2000b900>
    4388:	827c                	sh	a5,4(sp)
    438a:	00011323          	sh	zero,6(sp)
    438e:	00011423          	sh	zero,8(sp)
    4392:	00011523          	sh	zero,10(sp)
    4396:	00011623          	sh	zero,12(sp)
    439a:	00011723          	sh	zero,14(sp)
    439e:	c802                	sw	zero,16(sp)
    43a0:	ca02                	sw	zero,20(sp)
    43a2:	cc02                	sw	zero,24(sp)
    43a4:	ce02                	sw	zero,28(sp)
    43a6:	1a7000ef          	jal	ra,4d4c <GPIO_Init>
    43aa:	77f5                	lui	a5,0xffffd
    43ac:	c0078793          	addi	a5,a5,-1024 # ffffcc00 <_eusrstack+0xdfff7d00>
    43b0:	004c                	addi	a1,sp,4
    43b2:	c0048513          	addi	a0,s1,-1024
    43b6:	827c                	sh	a5,4(sp)
    43b8:	c602                	sw	zero,12(sp)
    43ba:	193000ef          	jal	ra,4d4c <GPIO_Init>
    43be:	4411                	li	s0,4
    43c0:	4961                	li	s2,24
    43c2:	004c                	addi	a1,sp,4
    43c4:	80048513          	addi	a0,s1,-2048
    43c8:	01211223          	sh	s2,4(sp)
    43cc:	c622                	sw	s0,12(sp)
    43ce:	17f000ef          	jal	ra,4d4c <GPIO_Init>
    43d2:	004c                	addi	a1,sp,4
    43d4:	80048513          	addi	a0,s1,-2048
    43d8:	8260                	sh	s0,4(sp)
    43da:	c622                	sw	s0,12(sp)
    43dc:	171000ef          	jal	ra,4d4c <GPIO_Init>
    43e0:	4705                	li	a4,1
    43e2:	400247b7          	lui	a5,0x40024
    43e6:	80e7a223          	sw	a4,-2044(a5) # 40023804 <_eusrstack+0x2001e904>
    43ea:	4589                	li	a1,2
    43ec:	4501                	li	a0,0
    43ee:	353000ef          	jal	ra,4f40 <GPIO_EXTILineConfig>
    43f2:	47c1                	li	a5,16
    43f4:	0808                	addi	a0,sp,16
    43f6:	cc3e                	sw	a5,24(sp)
    43f8:	c822                	sw	s0,16(sp)
    43fa:	ca02                	sw	zero,20(sp)
    43fc:	ce02                	sw	zero,28(sp)
    43fe:	041000ef          	jal	ra,4c3e <EXTI_Init>
    4402:	4511                	li	a0,4
    4404:	09d000ef          	jal	ra,4ca0 <EXTI_ClearITPendingBit>
    4408:	6791                	lui	a5,0x4
    440a:	e000e737          	lui	a4,0xe000e
    440e:	1dc78793          	addi	a5,a5,476 # 41dc <EXTI2_IRQHandler>
    4412:	052708a3          	sb	s2,81(a4) # e000e051 <_eusrstack+0xc0009151>
    4416:	0017e793          	ori	a5,a5,1
    441a:	d37c                	sw	a5,100(a4)
    441c:	40070c23          	sb	zero,1048(a4)
    4420:	010007b7          	lui	a5,0x1000
    4424:	10f72023          	sw	a5,256(a4)
    4428:	6105                	addi	sp,sp,32
    442a:	df7fc06f          	j	1220 <__riscv_restore_0>

0000442e <MX_IWDG_Init>:
    442e:	dcffc2ef          	jal	t0,11fc <__riscv_save_0>
    4432:	6715                	lui	a4,0x5
    4434:	400037b7          	lui	a5,0x40003
    4438:	55570713          	addi	a4,a4,1365 # 5555 <TIM_ICInit+0xb>
    443c:	c398                	sw	a4,0(a5)
    443e:	470d                	li	a4,3
    4440:	c3d8                	sw	a4,4(a5)
    4442:	6705                	lui	a4,0x1
    4444:	fa070713          	addi	a4,a4,-96 # fa0 <__stack_size+0x7a0>
    4448:	c798                	sw	a4,8(a5)
    444a:	323000ef          	jal	ra,4f6c <IWDG_ReloadCounter>
    444e:	32d000ef          	jal	ra,4f7a <IWDG_Enable>
    4452:	dcffc06f          	j	1220 <__riscv_restore_0>

00004456 <PWM_TIM1_Init>:
    4456:	da7fc2ef          	jal	t0,11fc <__riscv_save_0>
    445a:	6505                	lui	a0,0x1
    445c:	7139                	addi	sp,sp,-64
    445e:	4585                	li	a1,1
    4460:	80150513          	addi	a0,a0,-2047 # 801 <__stack_size+0x1>
    4464:	c402                	sw	zero,8(sp)
    4466:	c602                	sw	zero,12(sp)
    4468:	00011823          	sh	zero,16(sp)
    446c:	d802                	sw	zero,48(sp)
    446e:	da02                	sw	zero,52(sp)
    4470:	dc02                	sw	zero,56(sp)
    4472:	de02                	sw	zero,60(sp)
    4474:	d002                	sw	zero,32(sp)
    4476:	d202                	sw	zero,36(sp)
    4478:	d402                	sw	zero,40(sp)
    447a:	02011623          	sh	zero,44(sp)
    447e:	ca02                	sw	zero,20(sp)
    4480:	cc02                	sw	zero,24(sp)
    4482:	ce02                	sw	zero,28(sp)
    4484:	335000ef          	jal	ra,4fb8 <RCC_APB2PeriphClockCmd>
    4488:	00160537          	lui	a0,0x160
    448c:	4585                	li	a1,1
    448e:	04050513          	addi	a0,a0,64 # 160040 <_data_lma+0x159a48>
    4492:	40013437          	lui	s0,0x40013
    4496:	1a5000ef          	jal	ra,4e3a <GPIO_PinRemapConfig>
    449a:	7cf00793          	li	a5,1999
    449e:	002c                	addi	a1,sp,8
    44a0:	c0040513          	addi	a0,s0,-1024 # 40012c00 <_eusrstack+0x2000dd00>
    44a4:	c63e                	sw	a5,12(sp)
    44a6:	c402                	sw	zero,8(sp)
    44a8:	477000ef          	jal	ra,511e <TIM_TimeBaseInit>
    44ac:	c0040513          	addi	a0,s0,-1024
    44b0:	4585                	li	a1,1
    44b2:	737000ef          	jal	ra,53e8 <TIM_ARRPreloadConfig>
    44b6:	c0040513          	addi	a0,s0,-1024
    44ba:	45a1                	li	a1,8
    44bc:	747000ef          	jal	ra,5402 <TIM_OC1PreloadConfig>
    44c0:	06000793          	li	a5,96
    44c4:	180c                	addi	a1,sp,48
    44c6:	c0040513          	addi	a0,s0,-1024
    44ca:	d83e                	sw	a5,48(sp)
    44cc:	da02                	sw	zero,52(sp)
    44ce:	dc02                	sw	zero,56(sp)
    44d0:	de02                	sw	zero,60(sp)
    44d2:	4b7000ef          	jal	ra,5188 <TIM_OC1Init>
    44d6:	c0040513          	addi	a0,s0,-1024
    44da:	4581                	li	a1,0
    44dc:	76f000ef          	jal	ra,544a <TIM_OC1FastConfig>
    44e0:	c0040513          	addi	a0,s0,-1024
    44e4:	45a1                	li	a1,8
    44e6:	72b000ef          	jal	ra,5410 <TIM_OC2PreloadConfig>
    44ea:	180c                	addi	a1,sp,48
    44ec:	c0040513          	addi	a0,s0,-1024
    44f0:	02011923          	sh	zero,50(sp)
    44f4:	02011a23          	sh	zero,52(sp)
    44f8:	4fb000ef          	jal	ra,51f2 <TIM_OC2Init>
    44fc:	c0040513          	addi	a0,s0,-1024
    4500:	4581                	li	a1,0
    4502:	757000ef          	jal	ra,5458 <TIM_OC2FastConfig>
    4506:	c0040513          	addi	a0,s0,-1024
    450a:	45a1                	li	a1,8
    450c:	71b000ef          	jal	ra,5426 <TIM_OC3PreloadConfig>
    4510:	180c                	addi	a1,sp,48
    4512:	c0040513          	addi	a0,s0,-1024
    4516:	02011923          	sh	zero,50(sp)
    451a:	02011a23          	sh	zero,52(sp)
    451e:	569000ef          	jal	ra,5286 <TIM_OC3Init>
    4522:	c0040513          	addi	a0,s0,-1024
    4526:	4581                	li	a1,0
    4528:	747000ef          	jal	ra,546e <TIM_OC3FastConfig>
    452c:	c0040513          	addi	a0,s0,-1024
    4530:	45a1                	li	a1,8
    4532:	703000ef          	jal	ra,5434 <TIM_OC4PreloadConfig>
    4536:	180c                	addi	a1,sp,48
    4538:	c0040513          	addi	a0,s0,-1024
    453c:	02011923          	sh	zero,50(sp)
    4540:	02011a23          	sh	zero,52(sp)
    4544:	5d5000ef          	jal	ra,5318 <TIM_OC4Init>
    4548:	c0040513          	addi	a0,s0,-1024
    454c:	4581                	li	a1,0
    454e:	72f000ef          	jal	ra,547c <TIM_OC4FastConfig>
    4552:	002d07b7          	lui	a5,0x2d0
    4556:	d23e                	sw	a5,36(sp)
    4558:	100c                	addi	a1,sp,32
    455a:	200007b7          	lui	a5,0x20000
    455e:	c0040513          	addi	a0,s0,-1024
    4562:	d43e                	sw	a5,40(sp)
    4564:	40011437          	lui	s0,0x40011
    4568:	d002                	sw	zero,32(sp)
    456a:	02011623          	sh	zero,44(sp)
    456e:	613000ef          	jal	ra,5380 <TIM_BDTRConfig>
    4572:	4961                	li	s2,24
    4574:	448d                	li	s1,3
    4576:	4789                	li	a5,2
    4578:	084c                	addi	a1,sp,20
    457a:	c0040513          	addi	a0,s0,-1024 # 40010c00 <_eusrstack+0x2000bd00>
    457e:	82fc                	sh	a5,20(sp)
    4580:	ce4a                	sw	s2,28(sp)
    4582:	cc26                	sw	s1,24(sp)
    4584:	7c8000ef          	jal	ra,4d4c <GPIO_Init>
    4588:	4785                	li	a5,1
    458a:	084c                	addi	a1,sp,20
    458c:	c0040513          	addi	a0,s0,-1024
    4590:	82fc                	sh	a5,20(sp)
    4592:	ce4a                	sw	s2,28(sp)
    4594:	cc26                	sw	s1,24(sp)
    4596:	7b6000ef          	jal	ra,4d4c <GPIO_Init>
    459a:	08000793          	li	a5,128
    459e:	084c                	addi	a1,sp,20
    45a0:	80040513          	addi	a0,s0,-2048
    45a4:	82fc                	sh	a5,20(sp)
    45a6:	ce4a                	sw	s2,28(sp)
    45a8:	cc26                	sw	s1,24(sp)
    45aa:	7a2000ef          	jal	ra,4d4c <GPIO_Init>
    45ae:	40000793          	li	a5,1024
    45b2:	084c                	addi	a1,sp,20
    45b4:	80040513          	addi	a0,s0,-2048
    45b8:	82fc                	sh	a5,20(sp)
    45ba:	ce4a                	sw	s2,28(sp)
    45bc:	cc26                	sw	s1,24(sp)
    45be:	78e000ef          	jal	ra,4d4c <GPIO_Init>
    45c2:	20000793          	li	a5,512
    45c6:	084c                	addi	a1,sp,20
    45c8:	80040513          	addi	a0,s0,-2048
    45cc:	82fc                	sh	a5,20(sp)
    45ce:	ce4a                	sw	s2,28(sp)
    45d0:	cc26                	sw	s1,24(sp)
    45d2:	77a000ef          	jal	ra,4d4c <GPIO_Init>
    45d6:	10000793          	li	a5,256
    45da:	084c                	addi	a1,sp,20
    45dc:	80040513          	addi	a0,s0,-2048
    45e0:	82fc                	sh	a5,20(sp)
    45e2:	ce4a                	sw	s2,28(sp)
    45e4:	cc26                	sw	s1,24(sp)
    45e6:	766000ef          	jal	ra,4d4c <GPIO_Init>
    45ea:	6121                	addi	sp,sp,64
    45ec:	c35fc06f          	j	1220 <__riscv_restore_0>

000045f0 <ZC_TIM4_Init>:
    45f0:	c0dfc2ef          	jal	t0,11fc <__riscv_save_0>
    45f4:	4585                	li	a1,1
    45f6:	4511                	li	a0,4
    45f8:	1df000ef          	jal	ra,4fd6 <RCC_APB1PeriphClockCmd>
    45fc:	400017b7          	lui	a5,0x40001
    4600:	475d                	li	a4,23
    4602:	82e79423          	sh	a4,-2008(a5) # 40000828 <_eusrstack+0x1fffb928>
    4606:	577d                	li	a4,-1
    4608:	82e79623          	sh	a4,-2004(a5)
    460c:	c15fc06f          	j	1220 <__riscv_restore_0>

00004610 <TENKHz_SysTick_Init>:
    4610:	e000f7b7          	lui	a5,0xe000f
    4614:	0007a023          	sw	zero,0(a5) # e000f000 <_eusrstack+0xc000a100>
    4618:	0007a223          	sw	zero,4(a5)
    461c:	4681                	li	a3,0
    461e:	c794                	sw	a3,8(a5)
    4620:	4701                	li	a4,0
    4622:	c7d8                	sw	a4,12(a5)
    4624:	8741a583          	lw	a1,-1932(gp) # 200003cc <SystemCoreClock>
    4628:	6709                	lui	a4,0x2
    462a:	71070713          	addi	a4,a4,1808 # 2710 <zcfoundroutine+0x96>
    462e:	02e5d633          	divu	a2,a1,a4
    4632:	4681                	li	a3,0
    4634:	473d                	li	a4,15
    4636:	cb90                	sw	a2,16(a5)
    4638:	cbd4                	sw	a3,20(a5)
    463a:	c398                	sw	a4,0(a5)
    463c:	e000e7b7          	lui	a5,0xe000e
    4640:	5701                	li	a4,-32
    4642:	40e78623          	sb	a4,1036(a5) # e000e40c <_eusrstack+0xc000950c>
    4646:	6705                	lui	a4,0x1
    4648:	10e7a023          	sw	a4,256(a5)
    464c:	8082                	ret

0000464e <COM_TIM3_Init>:
    464e:	baffc2ef          	jal	t0,11fc <__riscv_save_0>
    4652:	4585                	li	a1,1
    4654:	4509                	li	a0,2
    4656:	181000ef          	jal	ra,4fd6 <RCC_APB1PeriphClockCmd>
    465a:	400007b7          	lui	a5,0x40000
    465e:	475d                	li	a4,23
    4660:	42e79423          	sh	a4,1064(a5) # 40000428 <_eusrstack+0x1fffb528>
    4664:	6705                	lui	a4,0x1
    4666:	fa070713          	addi	a4,a4,-96 # fa0 <__stack_size+0x7a0>
    466a:	42e79623          	sh	a4,1068(a5)
    466e:	e000e7b7          	lui	a5,0xe000e
    4672:	420786a3          	sb	zero,1069(a5) # e000e42d <_eusrstack+0xc000952d>
    4676:	6709                	lui	a4,0x2
    4678:	10e7a223          	sw	a4,260(a5)
    467c:	ba5fc06f          	j	1220 <__riscv_restore_0>

00004680 <ALL_DMA_Init>:
    4680:	b7dfc2ef          	jal	t0,11fc <__riscv_save_0>
    4684:	4585                	li	a1,1
    4686:	4505                	li	a0,1
    4688:	113000ef          	jal	ra,4f9a <RCC_AHBPeriphClockCmd>
    468c:	e000e7b7          	lui	a5,0xe000e
    4690:	fc000693          	li	a3,-64
    4694:	40d78fa3          	sb	a3,1055(a5) # e000e41f <_eusrstack+0xc000951f>
    4698:	80000737          	lui	a4,0x80000
    469c:	10e7a023          	sw	a4,256(a5)
    46a0:	477d                	li	a4,31
    46a2:	04e78823          	sb	a4,80(a5)
    46a6:	6711                	lui	a4,0x4
    46a8:	0da70713          	addi	a4,a4,218 # 40da <DMA1_Channel5_IRQHandler>
    46ac:	00176713          	ori	a4,a4,1
    46b0:	d3b8                	sw	a4,96(a5)
    46b2:	40d78da3          	sb	a3,1051(a5)
    46b6:	08000737          	lui	a4,0x8000
    46ba:	10e7a023          	sw	a4,256(a5)
    46be:	b63fc06f          	j	1220 <__riscv_restore_0>

000046c2 <ALL_GPIO_Init>:
    46c2:	4585                	li	a1,1
    46c4:	4535                	li	a0,13
    46c6:	0f30006f          	j	4fb8 <RCC_APB2PeriphClockCmd>

000046ca <UN_TIM2_Init>:
    46ca:	b33fc2ef          	jal	t0,11fc <__riscv_save_0>
    46ce:	7179                	addi	sp,sp,-48
    46d0:	4585                	li	a1,1
    46d2:	4505                	li	a0,1
    46d4:	d202                	sw	zero,36(sp)
    46d6:	d402                	sw	zero,40(sp)
    46d8:	d602                	sw	zero,44(sp)
    46da:	c602                	sw	zero,12(sp)
    46dc:	c802                	sw	zero,16(sp)
    46de:	00011a23          	sh	zero,20(sp)
    46e2:	cc02                	sw	zero,24(sp)
    46e4:	ce02                	sw	zero,28(sp)
    46e6:	02011023          	sh	zero,32(sp)
    46ea:	0ed000ef          	jal	ra,4fd6 <RCC_APB1PeriphClockCmd>
    46ee:	4585                	li	a1,1
    46f0:	4511                	li	a0,4
    46f2:	0c7000ef          	jal	ra,4fb8 <RCC_APB2PeriphClockCmd>
    46f6:	4791                	li	a5,4
    46f8:	40011537          	lui	a0,0x40011
    46fc:	4405                	li	s0,1
    46fe:	d63e                	sw	a5,44(sp)
    4700:	104c                	addi	a1,sp,36
    4702:	478d                	li	a5,3
    4704:	80050513          	addi	a0,a0,-2048 # 40010800 <_eusrstack+0x2000b900>
    4708:	02811223          	sh	s0,36(sp)
    470c:	d43e                	sw	a5,40(sp)
    470e:	2d3d                	jal	4d4c <GPIO_Init>
    4710:	e000e7b7          	lui	a5,0xe000e
    4714:	02000713          	li	a4,32
    4718:	42e78623          	sb	a4,1068(a5) # e000e42c <_eusrstack+0xc000952c>
    471c:	6705                	lui	a4,0x1
    471e:	10e7a223          	sw	a4,260(a5)
    4722:	67c1                	lui	a5,0x10
    4724:	17fd                	addi	a5,a5,-1 # ffff <_data_lma+0x9a07>
    4726:	006c                	addi	a1,sp,12
    4728:	40000537          	lui	a0,0x40000
    472c:	c83e                	sw	a5,16(sp)
    472e:	c602                	sw	zero,12(sp)
    4730:	1ef000ef          	jal	ra,511e <TIM_TimeBaseInit>
    4734:	4585                	li	a1,1
    4736:	40000537          	lui	a0,0x40000
    473a:	4af000ef          	jal	ra,53e8 <TIM_ARRPreloadConfig>
    473e:	4581                	li	a1,0
    4740:	40000537          	lui	a0,0x40000
    4744:	58f000ef          	jal	ra,54d2 <TIM_SelectOutputTrigger>
    4748:	082c                	addi	a1,sp,24
    474a:	40000537          	lui	a0,0x40000
    474e:	ce22                	sw	s0,28(sp)
    4750:	cc02                	sw	zero,24(sp)
    4752:	02011023          	sh	zero,32(sp)
    4756:	5f5000ef          	jal	ra,554a <TIM_ICInit>
    475a:	4605                	li	a2,1
    475c:	20000593          	li	a1,512
    4760:	40000537          	lui	a0,0x40000
    4764:	481000ef          	jal	ra,53e4 <TIM_DMACmd>
    4768:	6145                	addi	sp,sp,48
    476a:	ab7fc06f          	j	1220 <__riscv_restore_0>

0000476e <initCorePeripherals>:
    476e:	a8ffc2ef          	jal	t0,11fc <__riscv_save_0>
    4772:	f51ff0ef          	jal	ra,46c2 <ALL_GPIO_Init>
    4776:	f0bff0ef          	jal	ra,4680 <ALL_DMA_Init>
    477a:	cddff0ef          	jal	ra,4456 <PWM_TIM1_Init>
    477e:	e73ff0ef          	jal	ra,45f0 <ZC_TIM4_Init>
    4782:	bf3ff0ef          	jal	ra,4374 <ALL_COMP_Init>
    4786:	ec9ff0ef          	jal	ra,464e <COM_TIM3_Init>
    478a:	e87ff0ef          	jal	ra,4610 <TENKHz_SysTick_Init>
    478e:	f3dff0ef          	jal	ra,46ca <UN_TIM2_Init>
    4792:	a8ffc06f          	j	1220 <__riscv_restore_0>

00004796 <SystemInit>:
    4796:	400217b7          	lui	a5,0x40021
    479a:	4398                	lw	a4,0(a5)
    479c:	f8ff06b7          	lui	a3,0xf8ff0
    47a0:	00176713          	ori	a4,a4,1
    47a4:	c398                	sw	a4,0(a5)
    47a6:	43d8                	lw	a4,4(a5)
    47a8:	8f75                	and	a4,a4,a3
    47aa:	c3d8                	sw	a4,4(a5)
    47ac:	4398                	lw	a4,0(a5)
    47ae:	fef706b7          	lui	a3,0xfef70
    47b2:	16fd                	addi	a3,a3,-1 # fef6ffff <_eusrstack+0xdef6b0ff>
    47b4:	8f75                	and	a4,a4,a3
    47b6:	c398                	sw	a4,0(a5)
    47b8:	4398                	lw	a4,0(a5)
    47ba:	fffc06b7          	lui	a3,0xfffc0
    47be:	16fd                	addi	a3,a3,-1 # fffbffff <_eusrstack+0xdffbb0ff>
    47c0:	8f75                	and	a4,a4,a3
    47c2:	c398                	sw	a4,0(a5)
    47c4:	43d8                	lw	a4,4(a5)
    47c6:	ff8106b7          	lui	a3,0xff810
    47ca:	16fd                	addi	a3,a3,-1 # ff80ffff <_eusrstack+0xdf80b0ff>
    47cc:	8f75                	and	a4,a4,a3
    47ce:	c3d8                	sw	a4,4(a5)
    47d0:	009f0737          	lui	a4,0x9f0
    47d4:	c798                	sw	a4,8(a5)
    47d6:	40024737          	lui	a4,0x40024
    47da:	80070713          	addi	a4,a4,-2048 # 40023800 <_eusrstack+0x2001e900>
    47de:	4314                	lw	a3,0(a4)
    47e0:	0106e693          	ori	a3,a3,16
    47e4:	c314                	sw	a3,0(a4)
    47e6:	43d8                	lw	a4,4(a5)
    47e8:	668d                	lui	a3,0x3
    47ea:	80068693          	addi	a3,a3,-2048 # 2800 <main+0xe2>
    47ee:	c3d8                	sw	a4,4(a5)
    47f0:	43d8                	lw	a4,4(a5)
    47f2:	8f55                	or	a4,a4,a3
    47f4:	c3d8                	sw	a4,4(a5)
    47f6:	43d8                	lw	a4,4(a5)
    47f8:	ffc106b7          	lui	a3,0xffc10
    47fc:	16fd                	addi	a3,a3,-1 # ffc0ffff <_eusrstack+0xdfc0b0ff>
    47fe:	50076713          	ori	a4,a4,1280
    4802:	c3d8                	sw	a4,4(a5)
    4804:	43d8                	lw	a4,4(a5)
    4806:	8f75                	and	a4,a4,a3
    4808:	c3d8                	sw	a4,4(a5)
    480a:	43d8                	lw	a4,4(a5)
    480c:	002806b7          	lui	a3,0x280
    4810:	8f55                	or	a4,a4,a3
    4812:	c3d8                	sw	a4,4(a5)
    4814:	4398                	lw	a4,0(a5)
    4816:	010006b7          	lui	a3,0x1000
    481a:	8f55                	or	a4,a4,a3
    481c:	c398                	sw	a4,0(a5)
    481e:	020006b7          	lui	a3,0x2000
    4822:	4398                	lw	a4,0(a5)
    4824:	8f75                	and	a4,a4,a3
    4826:	df75                	beqz	a4,4822 <SystemInit+0x8c>
    4828:	43d8                	lw	a4,4(a5)
    482a:	400216b7          	lui	a3,0x40021
    482e:	9b71                	andi	a4,a4,-4
    4830:	c3d8                	sw	a4,4(a5)
    4832:	43d8                	lw	a4,4(a5)
    4834:	00276713          	ori	a4,a4,2
    4838:	c3d8                	sw	a4,4(a5)
    483a:	4721                	li	a4,8
    483c:	42dc                	lw	a5,4(a3)
    483e:	8bb1                	andi	a5,a5,12
    4840:	fee79ee3          	bne	a5,a4,483c <SystemInit+0xa6>
    4844:	8082                	ret

00004846 <SystemCoreClockUpdate>:
    4846:	40021737          	lui	a4,0x40021
    484a:	435c                	lw	a5,4(a4)
    484c:	46a1                	li	a3,8
    484e:	8bb1                	andi	a5,a5,12
    4850:	06d79663          	bne	a5,a3,48bc <SystemCoreClockUpdate+0x76>
    4854:	435c                	lw	a5,4(a4)
    4856:	4358                	lw	a4,4(a4)
    4858:	66c1                	lui	a3,0x10
    485a:	83c9                	srli	a5,a5,0x12
    485c:	8bbd                	andi	a5,a5,15
    485e:	8f75                	and	a4,a4,a3
    4860:	0789                	addi	a5,a5,2 # 40021002 <_eusrstack+0x2001c102>
    4862:	46c5                	li	a3,17
    4864:	00d79363          	bne	a5,a3,486a <SystemCoreClockUpdate+0x24>
    4868:	47c9                	li	a5,18
    486a:	ef01                	bnez	a4,4882 <SystemCoreClockUpdate+0x3c>
    486c:	40024737          	lui	a4,0x40024
    4870:	80072703          	lw	a4,-2048(a4) # 40023800 <_eusrstack+0x2001e900>
    4874:	8b41                	andi	a4,a4,16
    4876:	cf09                	beqz	a4,4890 <SystemCoreClockUpdate+0x4a>
    4878:	007a1737          	lui	a4,0x7a1
    487c:	20070713          	addi	a4,a4,512 # 7a1200 <_data_lma+0x79ac08>
    4880:	a821                	j	4898 <SystemCoreClockUpdate+0x52>
    4882:	40021737          	lui	a4,0x40021
    4886:	4358                	lw	a4,4(a4)
    4888:	000206b7          	lui	a3,0x20
    488c:	8f75                	and	a4,a4,a3
    488e:	d76d                	beqz	a4,4878 <SystemCoreClockUpdate+0x32>
    4890:	003d1737          	lui	a4,0x3d1
    4894:	90070713          	addi	a4,a4,-1792 # 3d0900 <_data_lma+0x3ca308>
    4898:	02e787b3          	mul	a5,a5,a4
    489c:	40021737          	lui	a4,0x40021
    48a0:	4354                	lw	a3,4(a4)
    48a2:	20000737          	lui	a4,0x20000
    48a6:	34870713          	addi	a4,a4,840 # 20000348 <AHBPrescTable>
    48aa:	8291                	srli	a3,a3,0x4
    48ac:	8abd                	andi	a3,a3,15
    48ae:	9736                	add	a4,a4,a3
    48b0:	2318                	lbu	a4,0(a4)
    48b2:	00e7d7b3          	srl	a5,a5,a4
    48b6:	86f1aa23          	sw	a5,-1932(gp) # 200003cc <SystemCoreClock>
    48ba:	8082                	ret
    48bc:	007a17b7          	lui	a5,0x7a1
    48c0:	20078793          	addi	a5,a5,512 # 7a1200 <_data_lma+0x79ac08>
    48c4:	bfe1                	j	489c <SystemCoreClockUpdate+0x56>
    48c6:	a001                	j	48c6 <SystemCoreClockUpdate+0x80>
    48c8:	a001                	j	48c8 <SystemCoreClockUpdate+0x82>

000048ca <Ecall_M_Mode_Handler>:
    48ca:	a001                	j	48ca <Ecall_M_Mode_Handler>

000048cc <Ecall_U_Mode_Handler>:
    48cc:	a001                	j	48cc <Ecall_U_Mode_Handler>

000048ce <Break_Point_Handler>:
    48ce:	a001                	j	48ce <Break_Point_Handler>
    48d0:	a001                	j	48d0 <Break_Point_Handler+0x2>

000048d2 <SW_Handler>:
    48d2:	a001                	j	48d2 <SW_Handler>

000048d4 <WWDG_IRQHandler>:
    48d4:	a001                	j	48d4 <WWDG_IRQHandler>

000048d6 <PVD_IRQHandler>:
    48d6:	a001                	j	48d6 <PVD_IRQHandler>

000048d8 <TAMPER_IRQHandler>:
    48d8:	a001                	j	48d8 <TAMPER_IRQHandler>

000048da <RTC_IRQHandler>:
    48da:	a001                	j	48da <RTC_IRQHandler>

000048dc <FLASH_IRQHandler>:
    48dc:	a001                	j	48dc <FLASH_IRQHandler>

000048de <RCC_IRQHandler>:
    48de:	a001                	j	48de <RCC_IRQHandler>

000048e0 <EXTI0_IRQHandler>:
    48e0:	a001                	j	48e0 <EXTI0_IRQHandler>

000048e2 <EXTI1_IRQHandler>:
    48e2:	a001                	j	48e2 <EXTI1_IRQHandler>
    48e4:	a001                	j	48e4 <EXTI1_IRQHandler+0x2>

000048e6 <EXTI3_IRQHandler>:
    48e6:	a001                	j	48e6 <EXTI3_IRQHandler>

000048e8 <EXTI4_IRQHandler>:
    48e8:	a001                	j	48e8 <EXTI4_IRQHandler>
    48ea:	a001                	j	48ea <EXTI4_IRQHandler+0x2>

000048ec <DMA1_Channel2_IRQHandler>:
    48ec:	a001                	j	48ec <DMA1_Channel2_IRQHandler>

000048ee <DMA1_Channel3_IRQHandler>:
    48ee:	a001                	j	48ee <DMA1_Channel3_IRQHandler>
    48f0:	a001                	j	48f0 <DMA1_Channel3_IRQHandler+0x2>
    48f2:	a001                	j	48f2 <DMA1_Channel3_IRQHandler+0x4>

000048f4 <DMA1_Channel6_IRQHandler>:
    48f4:	a001                	j	48f4 <DMA1_Channel6_IRQHandler>

000048f6 <DMA1_Channel7_IRQHandler>:
    48f6:	a001                	j	48f6 <DMA1_Channel7_IRQHandler>

000048f8 <ADC1_2_IRQHandler>:
    48f8:	a001                	j	48f8 <ADC1_2_IRQHandler>

000048fa <USB_HP_CAN1_TX_IRQHandler>:
    48fa:	a001                	j	48fa <USB_HP_CAN1_TX_IRQHandler>

000048fc <USB_LP_CAN1_RX0_IRQHandler>:
    48fc:	a001                	j	48fc <USB_LP_CAN1_RX0_IRQHandler>

000048fe <CAN1_RX1_IRQHandler>:
    48fe:	a001                	j	48fe <CAN1_RX1_IRQHandler>

00004900 <CAN1_SCE_IRQHandler>:
    4900:	a001                	j	4900 <CAN1_SCE_IRQHandler>

00004902 <EXTI9_5_IRQHandler>:
    4902:	a001                	j	4902 <EXTI9_5_IRQHandler>

00004904 <TIM1_BRK_IRQHandler>:
    4904:	a001                	j	4904 <TIM1_BRK_IRQHandler>

00004906 <TIM1_UP_IRQHandler>:
    4906:	a001                	j	4906 <TIM1_UP_IRQHandler>

00004908 <TIM1_TRG_COM_IRQHandler>:
    4908:	a001                	j	4908 <TIM1_TRG_COM_IRQHandler>

0000490a <TIM1_CC_IRQHandler>:
    490a:	a001                	j	490a <TIM1_CC_IRQHandler>

0000490c <TIM2_IRQHandler>:
    490c:	a001                	j	490c <TIM2_IRQHandler>
    490e:	a001                	j	490e <TIM2_IRQHandler+0x2>

00004910 <TIM4_IRQHandler>:
    4910:	a001                	j	4910 <TIM4_IRQHandler>

00004912 <I2C1_EV_IRQHandler>:
    4912:	a001                	j	4912 <I2C1_EV_IRQHandler>

00004914 <I2C1_ER_IRQHandler>:
    4914:	a001                	j	4914 <I2C1_ER_IRQHandler>

00004916 <I2C2_EV_IRQHandler>:
    4916:	a001                	j	4916 <I2C2_EV_IRQHandler>

00004918 <I2C2_ER_IRQHandler>:
    4918:	a001                	j	4918 <I2C2_ER_IRQHandler>

0000491a <SPI1_IRQHandler>:
    491a:	a001                	j	491a <SPI1_IRQHandler>

0000491c <SPI2_IRQHandler>:
    491c:	a001                	j	491c <SPI2_IRQHandler>

0000491e <USART1_IRQHandler>:
    491e:	a001                	j	491e <USART1_IRQHandler>

00004920 <USART2_IRQHandler>:
    4920:	a001                	j	4920 <USART2_IRQHandler>

00004922 <USART3_IRQHandler>:
    4922:	a001                	j	4922 <USART3_IRQHandler>

00004924 <EXTI15_10_IRQHandler>:
    4924:	a001                	j	4924 <EXTI15_10_IRQHandler>

00004926 <RTCAlarm_IRQHandler>:
    4926:	a001                	j	4926 <RTCAlarm_IRQHandler>

00004928 <USBWakeUp_IRQHandler>:
    4928:	a001                	j	4928 <USBWakeUp_IRQHandler>

0000492a <USBHD_IRQHandler>:
    492a:	a001                	j	492a <USBHD_IRQHandler>

0000492c <USBHDWakeUp_IRQHandler>:
    492c:	a001                	j	492c <USBHDWakeUp_IRQHandler>

0000492e <UART4_IRQHandler>:
    492e:	a001                	j	492e <UART4_IRQHandler>

00004930 <DMA1_Channel8_IRQHandler>:
    4930:	a001                	j	4930 <DMA1_Channel8_IRQHandler>

00004932 <handle_reset>:
    4932:	1fffc197          	auipc	gp,0x1fffc
    4936:	22618193          	addi	gp,gp,550 # 20000b58 <__global_pointer$>
    493a:	20000117          	auipc	sp,0x20000
    493e:	5c610113          	addi	sp,sp,1478 # 20004f00 <_eusrstack>
    4942:	00002517          	auipc	a0,0x2
    4946:	cb650513          	addi	a0,a0,-842 # 65f8 <_data_lma>
    494a:	1fffb597          	auipc	a1,0x1fffb
    494e:	6b658593          	addi	a1,a1,1718 # 20000000 <pwmSin>
    4952:	89018613          	addi	a2,gp,-1904 # 200003e8 <send_extended_dshot>
    4956:	00c5fa63          	bgeu	a1,a2,496a <handle_reset+0x38>
    495a:	00052283          	lw	t0,0(a0)
    495e:	0055a023          	sw	t0,0(a1)
    4962:	0511                	addi	a0,a0,4
    4964:	0591                	addi	a1,a1,4
    4966:	fec5eae3          	bltu	a1,a2,495a <handle_reset+0x28>
    496a:	89018513          	addi	a0,gp,-1904 # 200003e8 <send_extended_dshot>
    496e:	bf418593          	addi	a1,gp,-1036 # 2000074c <_ebss>
    4972:	00b57763          	bgeu	a0,a1,4980 <handle_reset+0x4e>
    4976:	00052023          	sw	zero,0(a0)
    497a:	0511                	addi	a0,a0,4
    497c:	feb56de3          	bltu	a0,a1,4976 <handle_reset+0x44>
    4980:	42fd                	li	t0,31
    4982:	bc029073          	csrw	0xbc0,t0
    4986:	428d                	li	t0,3
    4988:	80429073          	csrw	0x804,t0
    498c:	08800293          	li	t0,136
    4990:	3002a073          	csrs	mstatus,t0
    4994:	ffffc297          	auipc	t0,0xffffc
    4998:	73c28293          	addi	t0,t0,1852 # 10d0 <_vector_base>
    499c:	0032e293          	ori	t0,t0,3
    49a0:	30529073          	csrw	mtvec,t0
    49a4:	df3ff0ef          	jal	ra,4796 <SystemInit>
    49a8:	ffffe297          	auipc	t0,0xffffe
    49ac:	d7628293          	addi	t0,t0,-650 # 271e <main>
    49b0:	34129073          	csrw	mepc,t0
    49b4:	30200073          	mret

000049b8 <ADC_DeInit>:
    49b8:	845fc2ef          	jal	t0,11fc <__riscv_save_0>
    49bc:	400127b7          	lui	a5,0x40012
    49c0:	40078793          	addi	a5,a5,1024 # 40012400 <_eusrstack+0x2000d500>
    49c4:	00f51c63          	bne	a0,a5,49dc <ADC_DeInit+0x24>
    49c8:	4585                	li	a1,1
    49ca:	20000513          	li	a0,512
    49ce:	251d                	jal	4ff4 <RCC_APB2PeriphResetCmd>
    49d0:	4581                	li	a1,0
    49d2:	20000513          	li	a0,512
    49d6:	2d39                	jal	4ff4 <RCC_APB2PeriphResetCmd>
    49d8:	849fc06f          	j	1220 <__riscv_restore_0>
    49dc:	400137b7          	lui	a5,0x40013
    49e0:	80078793          	addi	a5,a5,-2048 # 40012800 <_eusrstack+0x2000d900>
    49e4:	fef51ae3          	bne	a0,a5,49d8 <ADC_DeInit+0x20>
    49e8:	4585                	li	a1,1
    49ea:	40000513          	li	a0,1024
    49ee:	2519                	jal	4ff4 <RCC_APB2PeriphResetCmd>
    49f0:	4581                	li	a1,0
    49f2:	40000513          	li	a0,1024
    49f6:	b7c5                	j	49d6 <ADC_DeInit+0x1e>

000049f8 <ADC_Init>:
    49f8:	4158                	lw	a4,4(a0)
    49fa:	e0f107b7          	lui	a5,0xe0f10
    49fe:	eff78793          	addi	a5,a5,-257 # e0f0feff <_eusrstack+0xc0f0afff>
    4a02:	4d94                	lw	a3,24(a1)
    4a04:	8f7d                	and	a4,a4,a5
    4a06:	419c                	lw	a5,0(a1)
    4a08:	8fd5                	or	a5,a5,a3
    4a0a:	4dd4                	lw	a3,28(a1)
    4a0c:	8fd5                	or	a5,a5,a3
    4a0e:	41d4                	lw	a3,4(a1)
    4a10:	06a2                	slli	a3,a3,0x8
    4a12:	8fd5                	or	a5,a5,a3
    4a14:	8fd9                	or	a5,a5,a4
    4a16:	c15c                	sw	a5,4(a0)
    4a18:	4518                	lw	a4,8(a0)
    4a1a:	fff1f7b7          	lui	a5,0xfff1f
    4a1e:	7fd78793          	addi	a5,a5,2045 # fff1f7fd <_eusrstack+0xdff1a8fd>
    4a22:	45d4                	lw	a3,12(a1)
    4a24:	8f7d                	and	a4,a4,a5
    4a26:	499c                	lw	a5,16(a1)
    4a28:	8fd5                	or	a5,a5,a3
    4a2a:	4594                	lw	a3,8(a1)
    4a2c:	0686                	slli	a3,a3,0x1
    4a2e:	8fd5                	or	a5,a5,a3
    4a30:	8fd9                	or	a5,a5,a4
    4a32:	c51c                	sw	a5,8(a0)
    4a34:	5558                	lw	a4,44(a0)
    4a36:	ff1007b7          	lui	a5,0xff100
    4a3a:	17fd                	addi	a5,a5,-1 # ff0fffff <_eusrstack+0xdf0fb0ff>
    4a3c:	8f7d                	and	a4,a4,a5
    4a3e:	29dc                	lbu	a5,20(a1)
    4a40:	17fd                	addi	a5,a5,-1
    4a42:	0ff7f793          	zext.b	a5,a5
    4a46:	07d2                	slli	a5,a5,0x14
    4a48:	8fd9                	or	a5,a5,a4
    4a4a:	d55c                	sw	a5,44(a0)
    4a4c:	8082                	ret

00004a4e <ADC_Cmd>:
    4a4e:	451c                	lw	a5,8(a0)
    4a50:	c589                	beqz	a1,4a5a <ADC_Cmd+0xc>
    4a52:	0017e793          	ori	a5,a5,1
    4a56:	c51c                	sw	a5,8(a0)
    4a58:	8082                	ret
    4a5a:	9bf9                	andi	a5,a5,-2
    4a5c:	bfed                	j	4a56 <ADC_Cmd+0x8>

00004a5e <ADC_DMACmd>:
    4a5e:	451c                	lw	a5,8(a0)
    4a60:	c589                	beqz	a1,4a6a <ADC_DMACmd+0xc>
    4a62:	1007e793          	ori	a5,a5,256
    4a66:	c51c                	sw	a5,8(a0)
    4a68:	8082                	ret
    4a6a:	eff7f793          	andi	a5,a5,-257
    4a6e:	bfe5                	j	4a66 <ADC_DMACmd+0x8>

00004a70 <ADC_ResetCalibration>:
    4a70:	451c                	lw	a5,8(a0)
    4a72:	0087e793          	ori	a5,a5,8
    4a76:	c51c                	sw	a5,8(a0)
    4a78:	8082                	ret

00004a7a <ADC_GetResetCalibrationStatus>:
    4a7a:	4508                	lw	a0,8(a0)
    4a7c:	810d                	srli	a0,a0,0x3
    4a7e:	8905                	andi	a0,a0,1
    4a80:	8082                	ret

00004a82 <ADC_StartCalibration>:
    4a82:	451c                	lw	a5,8(a0)
    4a84:	0047e793          	ori	a5,a5,4
    4a88:	c51c                	sw	a5,8(a0)
    4a8a:	8082                	ret

00004a8c <ADC_GetCalibrationStatus>:
    4a8c:	4508                	lw	a0,8(a0)
    4a8e:	8109                	srli	a0,a0,0x2
    4a90:	8905                	andi	a0,a0,1
    4a92:	8082                	ret

00004a94 <ADC_SoftwareStartConvCmd>:
    4a94:	451c                	lw	a5,8(a0)
    4a96:	c591                	beqz	a1,4aa2 <ADC_SoftwareStartConvCmd+0xe>
    4a98:	00500737          	lui	a4,0x500
    4a9c:	8fd9                	or	a5,a5,a4
    4a9e:	c51c                	sw	a5,8(a0)
    4aa0:	8082                	ret
    4aa2:	ffb00737          	lui	a4,0xffb00
    4aa6:	177d                	addi	a4,a4,-1 # ffafffff <_eusrstack+0xdfafb0ff>
    4aa8:	8ff9                	and	a5,a5,a4
    4aaa:	bfd5                	j	4a9e <ADC_SoftwareStartConvCmd+0xa>

00004aac <ADC_RegularChannelConfig>:
    4aac:	47a5                	li	a5,9
    4aae:	04b7f763          	bgeu	a5,a1,4afc <ADC_RegularChannelConfig+0x50>
    4ab2:	478d                	li	a5,3
    4ab4:	ff658713          	addi	a4,a1,-10
    4ab8:	02f70733          	mul	a4,a4,a5
    4abc:	00c52803          	lw	a6,12(a0)
    4ac0:	479d                	li	a5,7
    4ac2:	00e797b3          	sll	a5,a5,a4
    4ac6:	fff7c793          	not	a5,a5
    4aca:	0107f7b3          	and	a5,a5,a6
    4ace:	00e696b3          	sll	a3,a3,a4
    4ad2:	8edd                	or	a3,a3,a5
    4ad4:	c554                	sw	a3,12(a0)
    4ad6:	4799                	li	a5,6
    4ad8:	04c7e363          	bltu	a5,a2,4b1e <ADC_RegularChannelConfig+0x72>
    4adc:	4795                	li	a5,5
    4ade:	167d                	addi	a2,a2,-1 # 4001ffff <_eusrstack+0x2001b0ff>
    4ae0:	02f60633          	mul	a2,a2,a5
    4ae4:	5958                	lw	a4,52(a0)
    4ae6:	47fd                	li	a5,31
    4ae8:	00c797b3          	sll	a5,a5,a2
    4aec:	fff7c793          	not	a5,a5
    4af0:	8ff9                	and	a5,a5,a4
    4af2:	00c59633          	sll	a2,a1,a2
    4af6:	8e5d                	or	a2,a2,a5
    4af8:	d950                	sw	a2,52(a0)
    4afa:	8082                	ret
    4afc:	470d                	li	a4,3
    4afe:	02e58733          	mul	a4,a1,a4
    4b02:	01052803          	lw	a6,16(a0)
    4b06:	479d                	li	a5,7
    4b08:	00e797b3          	sll	a5,a5,a4
    4b0c:	fff7c793          	not	a5,a5
    4b10:	0107f7b3          	and	a5,a5,a6
    4b14:	00e696b3          	sll	a3,a3,a4
    4b18:	8edd                	or	a3,a3,a5
    4b1a:	c914                	sw	a3,16(a0)
    4b1c:	bf6d                	j	4ad6 <ADC_RegularChannelConfig+0x2a>
    4b1e:	47b1                	li	a5,12
    4b20:	02c7e263          	bltu	a5,a2,4b44 <ADC_RegularChannelConfig+0x98>
    4b24:	4795                	li	a5,5
    4b26:	1665                	addi	a2,a2,-7
    4b28:	02f60633          	mul	a2,a2,a5
    4b2c:	5918                	lw	a4,48(a0)
    4b2e:	47fd                	li	a5,31
    4b30:	00c797b3          	sll	a5,a5,a2
    4b34:	fff7c793          	not	a5,a5
    4b38:	8ff9                	and	a5,a5,a4
    4b3a:	00c59633          	sll	a2,a1,a2
    4b3e:	8e5d                	or	a2,a2,a5
    4b40:	d910                	sw	a2,48(a0)
    4b42:	8082                	ret
    4b44:	4795                	li	a5,5
    4b46:	164d                	addi	a2,a2,-13
    4b48:	02f60633          	mul	a2,a2,a5
    4b4c:	5558                	lw	a4,44(a0)
    4b4e:	47fd                	li	a5,31
    4b50:	00c797b3          	sll	a5,a5,a2
    4b54:	fff7c793          	not	a5,a5
    4b58:	8ff9                	and	a5,a5,a4
    4b5a:	00c595b3          	sll	a1,a1,a2
    4b5e:	8ddd                	or	a1,a1,a5
    4b60:	d54c                	sw	a1,44(a0)
    4b62:	8082                	ret

00004b64 <ADC_TempSensorVrefintCmd>:
    4b64:	400127b7          	lui	a5,0x40012
    4b68:	40078793          	addi	a5,a5,1024 # 40012400 <_eusrstack+0x2000d500>
    4b6c:	4798                	lw	a4,8(a5)
    4b6e:	c511                	beqz	a0,4b7a <ADC_TempSensorVrefintCmd+0x16>
    4b70:	008006b7          	lui	a3,0x800
    4b74:	8f55                	or	a4,a4,a3
    4b76:	c798                	sw	a4,8(a5)
    4b78:	8082                	ret
    4b7a:	ff8006b7          	lui	a3,0xff800
    4b7e:	16fd                	addi	a3,a3,-1 # ff7fffff <_eusrstack+0xdf7fb0ff>
    4b80:	8f75                	and	a4,a4,a3
    4b82:	bfd5                	j	4b76 <ADC_TempSensorVrefintCmd+0x12>

00004b84 <TempSensor_Volt_To_Temper>:
    4b84:	1ffff7b7          	lui	a5,0x1ffff
    4b88:	7207a783          	lw	a5,1824(a5) # 1ffff720 <_data_lma+0x1fff9128>
    4b8c:	0107d713          	srli	a4,a5,0x10
    4b90:	07c2                	slli	a5,a5,0x10
    4b92:	83c1                	srli	a5,a5,0x10
    4b94:	8d1d                	sub	a0,a0,a5
    4b96:	47a9                	li	a5,10
    4b98:	02f50533          	mul	a0,a0,a5
    4b9c:	02b00793          	li	a5,43
    4ba0:	0555                	addi	a0,a0,21
    4ba2:	02f54533          	div	a0,a0,a5
    4ba6:	40a70533          	sub	a0,a4,a0
    4baa:	8082                	ret

00004bac <ADC_BufferCmd>:
    4bac:	415c                	lw	a5,4(a0)
    4bae:	c591                	beqz	a1,4bba <ADC_BufferCmd+0xe>
    4bb0:	04000737          	lui	a4,0x4000
    4bb4:	8fd9                	or	a5,a5,a4
    4bb6:	c15c                	sw	a5,4(a0)
    4bb8:	8082                	ret
    4bba:	fc000737          	lui	a4,0xfc000
    4bbe:	177d                	addi	a4,a4,-1 # fbffffff <_eusrstack+0xdbffb0ff>
    4bc0:	8ff9                	and	a5,a5,a4
    4bc2:	bfd5                	j	4bb6 <ADC_BufferCmd+0xa>

00004bc4 <DMA_Init>:
    4bc4:	4118                	lw	a4,0(a0)
    4bc6:	77e1                	lui	a5,0xffff8
    4bc8:	07bd                	addi	a5,a5,15 # ffff800f <_eusrstack+0xdfff310f>
    4bca:	5194                	lw	a3,32(a1)
    4bcc:	8f7d                	and	a4,a4,a5
    4bce:	459c                	lw	a5,8(a1)
    4bd0:	8fd5                	or	a5,a5,a3
    4bd2:	4994                	lw	a3,16(a1)
    4bd4:	8fd5                	or	a5,a5,a3
    4bd6:	49d4                	lw	a3,20(a1)
    4bd8:	8fd5                	or	a5,a5,a3
    4bda:	4d94                	lw	a3,24(a1)
    4bdc:	8fd5                	or	a5,a5,a3
    4bde:	4dd4                	lw	a3,28(a1)
    4be0:	8fd5                	or	a5,a5,a3
    4be2:	51d4                	lw	a3,36(a1)
    4be4:	8fd5                	or	a5,a5,a3
    4be6:	5594                	lw	a3,40(a1)
    4be8:	8fd5                	or	a5,a5,a3
    4bea:	8fd9                	or	a5,a5,a4
    4bec:	c11c                	sw	a5,0(a0)
    4bee:	45dc                	lw	a5,12(a1)
    4bf0:	c15c                	sw	a5,4(a0)
    4bf2:	419c                	lw	a5,0(a1)
    4bf4:	c51c                	sw	a5,8(a0)
    4bf6:	41dc                	lw	a5,4(a1)
    4bf8:	c55c                	sw	a5,12(a0)
    4bfa:	8082                	ret

00004bfc <DMA_Cmd>:
    4bfc:	411c                	lw	a5,0(a0)
    4bfe:	c589                	beqz	a1,4c08 <DMA_Cmd+0xc>
    4c00:	0017e793          	ori	a5,a5,1
    4c04:	c11c                	sw	a5,0(a0)
    4c06:	8082                	ret
    4c08:	6741                	lui	a4,0x10
    4c0a:	1779                	addi	a4,a4,-2 # fffe <_data_lma+0x9a06>
    4c0c:	8ff9                	and	a5,a5,a4
    4c0e:	bfdd                	j	4c04 <DMA_Cmd+0x8>

00004c10 <DMA_ITConfig>:
    4c10:	411c                	lw	a5,0(a0)
    4c12:	c601                	beqz	a2,4c1a <DMA_ITConfig+0xa>
    4c14:	8fcd                	or	a5,a5,a1
    4c16:	c11c                	sw	a5,0(a0)
    4c18:	8082                	ret
    4c1a:	fff5c593          	not	a1,a1
    4c1e:	8dfd                	and	a1,a1,a5
    4c20:	c10c                	sw	a1,0(a0)
    4c22:	8082                	ret

00004c24 <DMA_GetFlagStatus>:
    4c24:	400207b7          	lui	a5,0x40020
    4c28:	439c                	lw	a5,0(a5)
    4c2a:	8d7d                	and	a0,a0,a5
    4c2c:	00a03533          	snez	a0,a0
    4c30:	8082                	ret

00004c32 <DMA_ClearFlag>:
    4c32:	400207b7          	lui	a5,0x40020
    4c36:	c3c8                	sw	a0,4(a5)
    4c38:	8082                	ret

00004c3a <DMA_GetITStatus>:
    4c3a:	febff06f          	j	4c24 <DMA_GetFlagStatus>

00004c3e <EXTI_Init>:
    4c3e:	4158                	lw	a4,4(a0)
    4c40:	410c                	lw	a1,0(a0)
    4c42:	4550                	lw	a2,12(a0)
    4c44:	400107b7          	lui	a5,0x40010
    4c48:	40078793          	addi	a5,a5,1024 # 40010400 <_eusrstack+0x2000b500>
    4c4c:	973e                	add	a4,a4,a5
    4c4e:	fff5c693          	not	a3,a1
    4c52:	c239                	beqz	a2,4c98 <EXTI_Init+0x5a>
    4c54:	4390                	lw	a2,0(a5)
    4c56:	8e75                	and	a2,a2,a3
    4c58:	c390                	sw	a2,0(a5)
    4c5a:	43d0                	lw	a2,4(a5)
    4c5c:	8ef1                	and	a3,a3,a2
    4c5e:	c3d4                	sw	a3,4(a5)
    4c60:	4314                	lw	a3,0(a4)
    4c62:	8ecd                	or	a3,a3,a1
    4c64:	c314                	sw	a3,0(a4)
    4c66:	4118                	lw	a4,0(a0)
    4c68:	4790                	lw	a2,8(a5)
    4c6a:	fff74693          	not	a3,a4
    4c6e:	8e75                	and	a2,a2,a3
    4c70:	c790                	sw	a2,8(a5)
    4c72:	47d0                	lw	a2,12(a5)
    4c74:	8ef1                	and	a3,a3,a2
    4c76:	c7d4                	sw	a3,12(a5)
    4c78:	4514                	lw	a3,8(a0)
    4c7a:	4641                	li	a2,16
    4c7c:	00c69963          	bne	a3,a2,4c8e <EXTI_Init+0x50>
    4c80:	4794                	lw	a3,8(a5)
    4c82:	8ed9                	or	a3,a3,a4
    4c84:	c794                	sw	a3,8(a5)
    4c86:	47d4                	lw	a3,12(a5)
    4c88:	8f55                	or	a4,a4,a3
    4c8a:	c7d8                	sw	a4,12(a5)
    4c8c:	8082                	ret
    4c8e:	97b6                	add	a5,a5,a3
    4c90:	4394                	lw	a3,0(a5)
    4c92:	8f55                	or	a4,a4,a3
    4c94:	c398                	sw	a4,0(a5)
    4c96:	8082                	ret
    4c98:	431c                	lw	a5,0(a4)
    4c9a:	8ff5                	and	a5,a5,a3
    4c9c:	c31c                	sw	a5,0(a4)
    4c9e:	8082                	ret

00004ca0 <EXTI_ClearITPendingBit>:
    4ca0:	400107b7          	lui	a5,0x40010
    4ca4:	40078793          	addi	a5,a5,1024 # 40010400 <_eusrstack+0x2000b500>
    4ca8:	cbc8                	sw	a0,20(a5)
    4caa:	8082                	ret

00004cac <FLASH_Lock>:
    4cac:	40022737          	lui	a4,0x40022
    4cb0:	4b1c                	lw	a5,16(a4)
    4cb2:	0807e793          	ori	a5,a5,128
    4cb6:	cb1c                	sw	a5,16(a4)
    4cb8:	8082                	ret

00004cba <FLASH_ErasePage_Fast>:
    4cba:	400227b7          	lui	a5,0x40022
    4cbe:	4b98                	lw	a4,16(a5)
    4cc0:	000206b7          	lui	a3,0x20
    4cc4:	f0057513          	andi	a0,a0,-256
    4cc8:	8f55                	or	a4,a4,a3
    4cca:	cb98                	sw	a4,16(a5)
    4ccc:	cbc8                	sw	a0,20(a5)
    4cce:	4b98                	lw	a4,16(a5)
    4cd0:	04076713          	ori	a4,a4,64
    4cd4:	cb98                	sw	a4,16(a5)
    4cd6:	47d8                	lw	a4,12(a5)
    4cd8:	8b05                	andi	a4,a4,1
    4cda:	ff75                	bnez	a4,4cd6 <FLASH_ErasePage_Fast+0x1c>
    4cdc:	4b98                	lw	a4,16(a5)
    4cde:	7681                	lui	a3,0xfffe0
    4ce0:	16fd                	addi	a3,a3,-1 # fffdffff <_eusrstack+0xdffdb0ff>
    4ce2:	8f75                	and	a4,a4,a3
    4ce4:	cb98                	sw	a4,16(a5)
    4ce6:	8082                	ret

00004ce8 <FLASH_ProgramPage_Fast>:
    4ce8:	40022737          	lui	a4,0x40022
    4cec:	4b1c                	lw	a5,16(a4)
    4cee:	66c1                	lui	a3,0x10
    4cf0:	f0057513          	andi	a0,a0,-256
    4cf4:	8fd5                	or	a5,a5,a3
    4cf6:	cb1c                	sw	a5,16(a4)
    4cf8:	475c                	lw	a5,12(a4)
    4cfa:	8b85                	andi	a5,a5,1
    4cfc:	fff5                	bnez	a5,4cf8 <FLASH_ProgramPage_Fast+0x10>
    4cfe:	40022737          	lui	a4,0x40022
    4d02:	475c                	lw	a5,12(a4)
    4d04:	8b89                	andi	a5,a5,2
    4d06:	fff5                	bnez	a5,4d02 <FLASH_ProgramPage_Fast+0x1a>
    4d08:	40022737          	lui	a4,0x40022
    4d0c:	10000613          	li	a2,256
    4d10:	00f586b3          	add	a3,a1,a5
    4d14:	0006a803          	lw	a6,0(a3) # 10000 <_data_lma+0x9a08>
    4d18:	00a786b3          	add	a3,a5,a0
    4d1c:	0106a023          	sw	a6,0(a3)
    4d20:	4754                	lw	a3,12(a4)
    4d22:	8a89                	andi	a3,a3,2
    4d24:	fef5                	bnez	a3,4d20 <FLASH_ProgramPage_Fast+0x38>
    4d26:	0791                	addi	a5,a5,4 # 40022004 <_eusrstack+0x2001d104>
    4d28:	fec794e3          	bne	a5,a2,4d10 <FLASH_ProgramPage_Fast+0x28>
    4d2c:	4b1c                	lw	a5,16(a4)
    4d2e:	002006b7          	lui	a3,0x200
    4d32:	8fd5                	or	a5,a5,a3
    4d34:	cb1c                	sw	a5,16(a4)
    4d36:	400227b7          	lui	a5,0x40022
    4d3a:	47d8                	lw	a4,12(a5)
    4d3c:	8b05                	andi	a4,a4,1
    4d3e:	ff75                	bnez	a4,4d3a <FLASH_ProgramPage_Fast+0x52>
    4d40:	4b98                	lw	a4,16(a5)
    4d42:	76c1                	lui	a3,0xffff0
    4d44:	16fd                	addi	a3,a3,-1 # fffeffff <_eusrstack+0xdffeb0ff>
    4d46:	8f75                	and	a4,a4,a3
    4d48:	cb98                	sw	a4,16(a5)
    4d4a:	8082                	ret

00004d4c <GPIO_Init>:
    4d4c:	459c                	lw	a5,8(a1)
    4d4e:	0107f713          	andi	a4,a5,16
    4d52:	00f7f813          	andi	a6,a5,15
    4d56:	c701                	beqz	a4,4d5e <GPIO_Init+0x12>
    4d58:	41d8                	lw	a4,4(a1)
    4d5a:	00e86833          	or	a6,a6,a4
    4d5e:	40022737          	lui	a4,0x40022
    4d62:	5b14                	lw	a3,48(a4)
    4d64:	0f000737          	lui	a4,0xf000
    4d68:	8f75                	and	a4,a4,a3
    4d6a:	eb45                	bnez	a4,4e1a <GPIO_Init+0xce>
    4d6c:	4685                	li	a3,1
    4d6e:	96d180a3          	sb	a3,-1695(gp) # 200004b9 <MCU_Version>
    4d72:	40011737          	lui	a4,0x40011
    4d76:	00e51563          	bne	a0,a4,4d80 <GPIO_Init+0x34>
    4d7a:	219a                	lhu	a4,0(a1)
    4d7c:	8335                	srli	a4,a4,0xd
    4d7e:	a19a                	sh	a4,0(a1)
    4d80:	218e                	lhu	a1,0(a1)
    4d82:	0ff5f713          	zext.b	a4,a1
    4d86:	c331                	beqz	a4,4dca <GPIO_Init+0x7e>
    4d88:	4118                	lw	a4,0(a0)
    4d8a:	4681                	li	a3,0
    4d8c:	4e05                	li	t3,1
    4d8e:	02800e93          	li	t4,40
    4d92:	4f3d                	li	t5,15
    4d94:	04800f93          	li	t6,72
    4d98:	4321                	li	t1,8
    4d9a:	00de1633          	sll	a2,t3,a3
    4d9e:	00c5f8b3          	and	a7,a1,a2
    4da2:	03161063          	bne	a2,a7,4dc2 <GPIO_Init+0x76>
    4da6:	09d79263          	bne	a5,t4,4e2a <GPIO_Init+0xde>
    4daa:	c950                	sw	a2,20(a0)
    4dac:	00269613          	slli	a2,a3,0x2
    4db0:	00cf18b3          	sll	a7,t5,a2
    4db4:	fff8c893          	not	a7,a7
    4db8:	00e8f733          	and	a4,a7,a4
    4dbc:	00c81633          	sll	a2,a6,a2
    4dc0:	8f51                	or	a4,a4,a2
    4dc2:	0685                	addi	a3,a3,1
    4dc4:	fc669be3          	bne	a3,t1,4d9a <GPIO_Init+0x4e>
    4dc8:	c118                	sw	a4,0(a0)
    4dca:	0ff00713          	li	a4,255
    4dce:	04b77563          	bgeu	a4,a1,4e18 <GPIO_Init+0xcc>
    4dd2:	4154                	lw	a3,4(a0)
    4dd4:	4601                	li	a2,0
    4dd6:	4e05                	li	t3,1
    4dd8:	02800e93          	li	t4,40
    4ddc:	04800f13          	li	t5,72
    4de0:	4321                	li	t1,8
    4de2:	00860713          	addi	a4,a2,8
    4de6:	00ee1733          	sll	a4,t3,a4
    4dea:	00e5f8b3          	and	a7,a1,a4
    4dee:	03171163          	bne	a4,a7,4e10 <GPIO_Init+0xc4>
    4df2:	05d79063          	bne	a5,t4,4e32 <GPIO_Init+0xe6>
    4df6:	c958                	sw	a4,20(a0)
    4df8:	00261893          	slli	a7,a2,0x2
    4dfc:	473d                	li	a4,15
    4dfe:	01171733          	sll	a4,a4,a7
    4e02:	fff74713          	not	a4,a4
    4e06:	8ef9                	and	a3,a3,a4
    4e08:	011818b3          	sll	a7,a6,a7
    4e0c:	00d8e6b3          	or	a3,a7,a3
    4e10:	0605                	addi	a2,a2,1
    4e12:	fc6618e3          	bne	a2,t1,4de2 <GPIO_Init+0x96>
    4e16:	c154                	sw	a3,4(a0)
    4e18:	8082                	ret
    4e1a:	40011737          	lui	a4,0x40011
    4e1e:	f6e511e3          	bne	a0,a4,4d80 <GPIO_Init+0x34>
    4e22:	9611c703          	lbu	a4,-1695(gp) # 200004b9 <MCU_Version>
    4e26:	df29                	beqz	a4,4d80 <GPIO_Init+0x34>
    4e28:	bf89                	j	4d7a <GPIO_Init+0x2e>
    4e2a:	f9f791e3          	bne	a5,t6,4dac <GPIO_Init+0x60>
    4e2e:	c910                	sw	a2,16(a0)
    4e30:	bfb5                	j	4dac <GPIO_Init+0x60>
    4e32:	fde793e3          	bne	a5,t5,4df8 <GPIO_Init+0xac>
    4e36:	c918                	sw	a4,16(a0)
    4e38:	b7c1                	j	4df8 <GPIO_Init+0xac>

00004e3a <GPIO_PinRemapConfig>:
    4e3a:	003006b7          	lui	a3,0x300
    4e3e:	01055613          	srli	a2,a0,0x10
    4e42:	01051713          	slli	a4,a0,0x10
    4e46:	00d57833          	and	a6,a0,a3
    4e4a:	8a3d                	andi	a2,a2,15
    4e4c:	8341                	srli	a4,a4,0x10
    4e4e:	400107b7          	lui	a5,0x40010
    4e52:	02055163          	bgez	a0,4e74 <GPIO_PinRemapConfig+0x3a>
    4e56:	4fdc                	lw	a5,28(a5)
    4e58:	06d81763          	bne	a6,a3,4ec6 <GPIO_PinRemapConfig+0x8c>
    4e5c:	0641                	addi	a2,a2,16
    4e5e:	468d                	li	a3,3
    4e60:	00c696b3          	sll	a3,a3,a2
    4e64:	fff6c693          	not	a3,a3
    4e68:	8ff5                	and	a5,a5,a3
    4e6a:	e5f1                	bnez	a1,4f36 <GPIO_PinRemapConfig+0xfc>
    4e6c:	40010737          	lui	a4,0x40010
    4e70:	cf5c                	sw	a5,28(a4)
    4e72:	8082                	ret
    4e74:	43d4                	lw	a3,4(a5)
    4e76:	400227b7          	lui	a5,0x40022
    4e7a:	0307a883          	lw	a7,48(a5) # 40022030 <_eusrstack+0x2001d130>
    4e7e:	0f0007b7          	lui	a5,0xf000
    4e82:	0117f7b3          	and	a5,a5,a7
    4e86:	eb89                	bnez	a5,4e98 <GPIO_PinRemapConfig+0x5e>
    4e88:	0016d793          	srli	a5,a3,0x1
    4e8c:	78f9                	lui	a7,0xffffe
    4e8e:	06ce                	slli	a3,a3,0x13
    4e90:	0117f7b3          	and	a5,a5,a7
    4e94:	82cd                	srli	a3,a3,0x13
    4e96:	8edd                	or	a3,a3,a5
    4e98:	003007b7          	lui	a5,0x300
    4e9c:	06f81063          	bne	a6,a5,4efc <GPIO_PinRemapConfig+0xc2>
    4ea0:	f1000637          	lui	a2,0xf1000
    4ea4:	167d                	addi	a2,a2,-1 # f0ffffff <_eusrstack+0xd0ffb0ff>
    4ea6:	40010837          	lui	a6,0x40010
    4eaa:	00c6f7b3          	and	a5,a3,a2
    4eae:	00482683          	lw	a3,4(a6) # 40010004 <_eusrstack+0x2000b104>
    4eb2:	8ef1                	and	a3,a3,a2
    4eb4:	00d82223          	sw	a3,4(a6)
    4eb8:	c9bd                	beqz	a1,4f2e <GPIO_PinRemapConfig+0xf4>
    4eba:	8155                	srli	a0,a0,0x15
    4ebc:	0512                	slli	a0,a0,0x4
    4ebe:	00a71533          	sll	a0,a4,a0
    4ec2:	8fc9                	or	a5,a5,a0
    4ec4:	a0ad                	j	4f2e <GPIO_PinRemapConfig+0xf4>
    4ec6:	001006b7          	lui	a3,0x100
    4eca:	8ee9                	and	a3,a3,a0
    4ecc:	ce91                	beqz	a3,4ee8 <GPIO_PinRemapConfig+0xae>
    4ece:	468d                	li	a3,3
    4ed0:	00c696b3          	sll	a3,a3,a2
    4ed4:	fff6c693          	not	a3,a3
    4ed8:	8ff5                	and	a5,a5,a3
    4eda:	d9c9                	beqz	a1,4e6c <GPIO_PinRemapConfig+0x32>
    4edc:	8155                	srli	a0,a0,0x15
    4ede:	0512                	slli	a0,a0,0x4
    4ee0:	00a71533          	sll	a0,a4,a0
    4ee4:	8fc9                	or	a5,a5,a0
    4ee6:	b759                	j	4e6c <GPIO_PinRemapConfig+0x32>
    4ee8:	8155                	srli	a0,a0,0x15
    4eea:	0512                	slli	a0,a0,0x4
    4eec:	00a71733          	sll	a4,a4,a0
    4ef0:	fff74693          	not	a3,a4
    4ef4:	8ff5                	and	a5,a5,a3
    4ef6:	d9bd                	beqz	a1,4e6c <GPIO_PinRemapConfig+0x32>
    4ef8:	8fd9                	or	a5,a5,a4
    4efa:	bf8d                	j	4e6c <GPIO_PinRemapConfig+0x32>
    4efc:	001007b7          	lui	a5,0x100
    4f00:	8fe9                	and	a5,a5,a0
    4f02:	cb99                	beqz	a5,4f18 <GPIO_PinRemapConfig+0xde>
    4f04:	478d                	li	a5,3
    4f06:	00c797b3          	sll	a5,a5,a2
    4f0a:	fff7c793          	not	a5,a5
    4f0e:	8ff5                	and	a5,a5,a3
    4f10:	0f0006b7          	lui	a3,0xf000
    4f14:	8fd5                	or	a5,a5,a3
    4f16:	b74d                	j	4eb8 <GPIO_PinRemapConfig+0x7e>
    4f18:	8155                	srli	a0,a0,0x15
    4f1a:	0512                	slli	a0,a0,0x4
    4f1c:	00a71533          	sll	a0,a4,a0
    4f20:	fff54793          	not	a5,a0
    4f24:	8ff5                	and	a5,a5,a3
    4f26:	0f000737          	lui	a4,0xf000
    4f2a:	8fd9                	or	a5,a5,a4
    4f2c:	f9d9                	bnez	a1,4ec2 <GPIO_PinRemapConfig+0x88>
    4f2e:	40010737          	lui	a4,0x40010
    4f32:	c35c                	sw	a5,4(a4)
    4f34:	8082                	ret
    4f36:	8155                	srli	a0,a0,0x15
    4f38:	0512                	slli	a0,a0,0x4
    4f3a:	00a71733          	sll	a4,a4,a0
    4f3e:	bf6d                	j	4ef8 <GPIO_PinRemapConfig+0xbe>

00004f40 <GPIO_EXTILineConfig>:
    4f40:	0035f693          	andi	a3,a1,3
    4f44:	40010737          	lui	a4,0x40010
    4f48:	0fc5f593          	andi	a1,a1,252
    4f4c:	972e                	add	a4,a4,a1
    4f4e:	4710                	lw	a2,8(a4)
    4f50:	068a                	slli	a3,a3,0x2
    4f52:	47bd                	li	a5,15
    4f54:	00d797b3          	sll	a5,a5,a3
    4f58:	fff7c793          	not	a5,a5
    4f5c:	8ff1                	and	a5,a5,a2
    4f5e:	c71c                	sw	a5,8(a4)
    4f60:	471c                	lw	a5,8(a4)
    4f62:	00d51533          	sll	a0,a0,a3
    4f66:	8d5d                	or	a0,a0,a5
    4f68:	c708                	sw	a0,8(a4)
    4f6a:	8082                	ret

00004f6c <IWDG_ReloadCounter>:
    4f6c:	67ad                	lui	a5,0xb
    4f6e:	40003737          	lui	a4,0x40003
    4f72:	aaa78793          	addi	a5,a5,-1366 # aaaa <_data_lma+0x44b2>
    4f76:	c31c                	sw	a5,0(a4)
    4f78:	8082                	ret

00004f7a <IWDG_Enable>:
    4f7a:	67b5                	lui	a5,0xd
    4f7c:	40003737          	lui	a4,0x40003
    4f80:	ccc78793          	addi	a5,a5,-820 # cccc <_data_lma+0x66d4>
    4f84:	c31c                	sw	a5,0(a4)
    4f86:	8082                	ret

00004f88 <RCC_ADCCLKConfig>:
    4f88:	400216b7          	lui	a3,0x40021
    4f8c:	42dc                	lw	a5,4(a3)
    4f8e:	7751                	lui	a4,0xffff4
    4f90:	177d                	addi	a4,a4,-1 # ffff3fff <_eusrstack+0xdffef0ff>
    4f92:	8ff9                	and	a5,a5,a4
    4f94:	8fc9                	or	a5,a5,a0
    4f96:	c2dc                	sw	a5,4(a3)
    4f98:	8082                	ret

00004f9a <RCC_AHBPeriphClockCmd>:
    4f9a:	c599                	beqz	a1,4fa8 <RCC_AHBPeriphClockCmd+0xe>
    4f9c:	40021737          	lui	a4,0x40021
    4fa0:	4b5c                	lw	a5,20(a4)
    4fa2:	8fc9                	or	a5,a5,a0
    4fa4:	cb5c                	sw	a5,20(a4)
    4fa6:	8082                	ret
    4fa8:	400217b7          	lui	a5,0x40021
    4fac:	4bd8                	lw	a4,20(a5)
    4fae:	fff54513          	not	a0,a0
    4fb2:	8d79                	and	a0,a0,a4
    4fb4:	cbc8                	sw	a0,20(a5)
    4fb6:	8082                	ret

00004fb8 <RCC_APB2PeriphClockCmd>:
    4fb8:	c599                	beqz	a1,4fc6 <RCC_APB2PeriphClockCmd+0xe>
    4fba:	40021737          	lui	a4,0x40021
    4fbe:	4f1c                	lw	a5,24(a4)
    4fc0:	8fc9                	or	a5,a5,a0
    4fc2:	cf1c                	sw	a5,24(a4)
    4fc4:	8082                	ret
    4fc6:	400217b7          	lui	a5,0x40021
    4fca:	4f98                	lw	a4,24(a5)
    4fcc:	fff54513          	not	a0,a0
    4fd0:	8d79                	and	a0,a0,a4
    4fd2:	cf88                	sw	a0,24(a5)
    4fd4:	8082                	ret

00004fd6 <RCC_APB1PeriphClockCmd>:
    4fd6:	c599                	beqz	a1,4fe4 <RCC_APB1PeriphClockCmd+0xe>
    4fd8:	40021737          	lui	a4,0x40021
    4fdc:	4f5c                	lw	a5,28(a4)
    4fde:	8fc9                	or	a5,a5,a0
    4fe0:	cf5c                	sw	a5,28(a4)
    4fe2:	8082                	ret
    4fe4:	400217b7          	lui	a5,0x40021
    4fe8:	4fd8                	lw	a4,28(a5)
    4fea:	fff54513          	not	a0,a0
    4fee:	8d79                	and	a0,a0,a4
    4ff0:	cfc8                	sw	a0,28(a5)
    4ff2:	8082                	ret

00004ff4 <RCC_APB2PeriphResetCmd>:
    4ff4:	c599                	beqz	a1,5002 <RCC_APB2PeriphResetCmd+0xe>
    4ff6:	40021737          	lui	a4,0x40021
    4ffa:	475c                	lw	a5,12(a4)
    4ffc:	8fc9                	or	a5,a5,a0
    4ffe:	c75c                	sw	a5,12(a4)
    5000:	8082                	ret
    5002:	400217b7          	lui	a5,0x40021
    5006:	47d8                	lw	a4,12(a5)
    5008:	fff54513          	not	a0,a0
    500c:	8d79                	and	a0,a0,a4
    500e:	c7c8                	sw	a0,12(a5)
    5010:	8082                	ret

00005012 <RCC_APB1PeriphResetCmd>:
    5012:	c599                	beqz	a1,5020 <RCC_APB1PeriphResetCmd+0xe>
    5014:	40021737          	lui	a4,0x40021
    5018:	4b1c                	lw	a5,16(a4)
    501a:	8fc9                	or	a5,a5,a0
    501c:	cb1c                	sw	a5,16(a4)
    501e:	8082                	ret
    5020:	400217b7          	lui	a5,0x40021
    5024:	4b98                	lw	a4,16(a5)
    5026:	fff54513          	not	a0,a0
    502a:	8d79                	and	a0,a0,a4
    502c:	cb88                	sw	a0,16(a5)
    502e:	8082                	ret

00005030 <TI1_Config>:
    5030:	311e                	lhu	a5,32(a0)
    5032:	0692                	slli	a3,a3,0x4
    5034:	8e55                	or	a2,a2,a3
    5036:	07c2                	slli	a5,a5,0x10
    5038:	83c1                	srli	a5,a5,0x10
    503a:	9bf9                	andi	a5,a5,-2
    503c:	07c2                	slli	a5,a5,0x10
    503e:	83c1                	srli	a5,a5,0x10
    5040:	b11e                	sh	a5,32(a0)
    5042:	2d1a                	lhu	a4,24(a0)
    5044:	311e                	lhu	a5,32(a0)
    5046:	400136b7          	lui	a3,0x40013
    504a:	0742                	slli	a4,a4,0x10
    504c:	8341                	srli	a4,a4,0x10
    504e:	f0c77713          	andi	a4,a4,-244
    5052:	8f51                	or	a4,a4,a2
    5054:	07c2                	slli	a5,a5,0x10
    5056:	0742                	slli	a4,a4,0x10
    5058:	c0068693          	addi	a3,a3,-1024 # 40012c00 <_eusrstack+0x2000dd00>
    505c:	83c1                	srli	a5,a5,0x10
    505e:	8341                	srli	a4,a4,0x10
    5060:	02d50463          	beq	a0,a3,5088 <TI1_Config+0x58>
    5064:	400006b7          	lui	a3,0x40000
    5068:	02d50063          	beq	a0,a3,5088 <TI1_Config+0x58>
    506c:	40068693          	addi	a3,a3,1024 # 40000400 <_eusrstack+0x1fffb500>
    5070:	00d50c63          	beq	a0,a3,5088 <TI1_Config+0x58>
    5074:	400016b7          	lui	a3,0x40001
    5078:	80068613          	addi	a2,a3,-2048 # 40000800 <_eusrstack+0x1fffb900>
    507c:	00c50663          	beq	a0,a2,5088 <TI1_Config+0x58>
    5080:	c0068693          	addi	a3,a3,-1024
    5084:	00d51963          	bne	a0,a3,5096 <TI1_Config+0x66>
    5088:	9bf5                	andi	a5,a5,-3
    508a:	8ddd                	or	a1,a1,a5
    508c:	0015e593          	ori	a1,a1,1
    5090:	ad1a                	sh	a4,24(a0)
    5092:	b10e                	sh	a1,32(a0)
    5094:	8082                	ret
    5096:	9bd5                	andi	a5,a5,-11
    5098:	bfcd                	j	508a <TI1_Config+0x5a>

0000509a <TI2_Config>:
    509a:	311e                	lhu	a5,32(a0)
    509c:	6885                	lui	a7,0x1
    509e:	cff88893          	addi	a7,a7,-769 # cff <__stack_size+0x4ff>
    50a2:	07c2                	slli	a5,a5,0x10
    50a4:	83c1                	srli	a5,a5,0x10
    50a6:	9bbd                	andi	a5,a5,-17
    50a8:	07c2                	slli	a5,a5,0x10
    50aa:	83c1                	srli	a5,a5,0x10
    50ac:	b11e                	sh	a5,32(a0)
    50ae:	2d1a                	lhu	a4,24(a0)
    50b0:	06b2                	slli	a3,a3,0xc
    50b2:	311e                	lhu	a5,32(a0)
    50b4:	0622                	slli	a2,a2,0x8
    50b6:	8ed1                	or	a3,a3,a2
    50b8:	01177733          	and	a4,a4,a7
    50bc:	8f55                	or	a4,a4,a3
    50be:	00459813          	slli	a6,a1,0x4
    50c2:	400136b7          	lui	a3,0x40013
    50c6:	07c2                	slli	a5,a5,0x10
    50c8:	0842                	slli	a6,a6,0x10
    50ca:	0742                	slli	a4,a4,0x10
    50cc:	c0068693          	addi	a3,a3,-1024 # 40012c00 <_eusrstack+0x2000dd00>
    50d0:	83c1                	srli	a5,a5,0x10
    50d2:	01085813          	srli	a6,a6,0x10
    50d6:	8341                	srli	a4,a4,0x10
    50d8:	02d50463          	beq	a0,a3,5100 <TI2_Config+0x66>
    50dc:	400006b7          	lui	a3,0x40000
    50e0:	02d50063          	beq	a0,a3,5100 <TI2_Config+0x66>
    50e4:	40068693          	addi	a3,a3,1024 # 40000400 <_eusrstack+0x1fffb500>
    50e8:	00d50c63          	beq	a0,a3,5100 <TI2_Config+0x66>
    50ec:	400016b7          	lui	a3,0x40001
    50f0:	80068613          	addi	a2,a3,-2048 # 40000800 <_eusrstack+0x1fffb900>
    50f4:	00c50663          	beq	a0,a2,5100 <TI2_Config+0x66>
    50f8:	c0068693          	addi	a3,a3,-1024
    50fc:	00d51b63          	bne	a0,a3,5112 <TI2_Config+0x78>
    5100:	fdf7f793          	andi	a5,a5,-33
    5104:	00f86833          	or	a6,a6,a5
    5108:	01086593          	ori	a1,a6,16
    510c:	ad1a                	sh	a4,24(a0)
    510e:	b10e                	sh	a1,32(a0)
    5110:	8082                	ret
    5112:	f5f7f793          	andi	a5,a5,-161
    5116:	8ddd                	or	a1,a1,a5
    5118:	0105e593          	ori	a1,a1,16
    511c:	bfc5                	j	510c <TI2_Config+0x72>

0000511e <TIM_TimeBaseInit>:
    511e:	211e                	lhu	a5,0(a0)
    5120:	40013737          	lui	a4,0x40013
    5124:	c0070713          	addi	a4,a4,-1024 # 40012c00 <_eusrstack+0x2000dd00>
    5128:	07c2                	slli	a5,a5,0x10
    512a:	83c1                	srli	a5,a5,0x10
    512c:	02e50463          	beq	a0,a4,5154 <TIM_TimeBaseInit+0x36>
    5130:	40000737          	lui	a4,0x40000
    5134:	02e50063          	beq	a0,a4,5154 <TIM_TimeBaseInit+0x36>
    5138:	40070713          	addi	a4,a4,1024 # 40000400 <_eusrstack+0x1fffb500>
    513c:	00e50c63          	beq	a0,a4,5154 <TIM_TimeBaseInit+0x36>
    5140:	40001737          	lui	a4,0x40001
    5144:	80070693          	addi	a3,a4,-2048 # 40000800 <_eusrstack+0x1fffb900>
    5148:	00d50663          	beq	a0,a3,5154 <TIM_TimeBaseInit+0x36>
    514c:	c0070713          	addi	a4,a4,-1024
    5150:	00e51663          	bne	a0,a4,515c <TIM_TimeBaseInit+0x3e>
    5154:	21ba                	lhu	a4,2(a1)
    5156:	f8f7f793          	andi	a5,a5,-113
    515a:	8fd9                	or	a5,a5,a4
    515c:	21fa                	lhu	a4,6(a1)
    515e:	cff7f793          	andi	a5,a5,-769
    5162:	07c2                	slli	a5,a5,0x10
    5164:	83c1                	srli	a5,a5,0x10
    5166:	8fd9                	or	a5,a5,a4
    5168:	a11e                	sh	a5,0(a0)
    516a:	21de                	lhu	a5,4(a1)
    516c:	b55e                	sh	a5,44(a0)
    516e:	219e                	lhu	a5,0(a1)
    5170:	b51e                	sh	a5,40(a0)
    5172:	400137b7          	lui	a5,0x40013
    5176:	c0078793          	addi	a5,a5,-1024 # 40012c00 <_eusrstack+0x2000dd00>
    517a:	00f51463          	bne	a0,a5,5182 <TIM_TimeBaseInit+0x64>
    517e:	259c                	lbu	a5,8(a1)
    5180:	b91e                	sh	a5,48(a0)
    5182:	4785                	li	a5,1
    5184:	a95e                	sh	a5,20(a0)
    5186:	8082                	ret

00005188 <TIM_OC1Init>:
    5188:	311e                	lhu	a5,32(a0)
    518a:	2192                	lhu	a2,0(a1)
    518c:	0025d803          	lhu	a6,2(a1)
    5190:	07c2                	slli	a5,a5,0x10
    5192:	83c1                	srli	a5,a5,0x10
    5194:	9bf9                	andi	a5,a5,-2
    5196:	07c2                	slli	a5,a5,0x10
    5198:	83c1                	srli	a5,a5,0x10
    519a:	b11e                	sh	a5,32(a0)
    519c:	311e                	lhu	a5,32(a0)
    519e:	2156                	lhu	a3,4(a0)
    51a0:	2d1a                	lhu	a4,24(a0)
    51a2:	07c2                	slli	a5,a5,0x10
    51a4:	83c1                	srli	a5,a5,0x10
    51a6:	0742                	slli	a4,a4,0x10
    51a8:	8341                	srli	a4,a4,0x10
    51aa:	f8c77713          	andi	a4,a4,-116
    51ae:	8f51                	or	a4,a4,a2
    51b0:	2592                	lhu	a2,8(a1)
    51b2:	9bf5                	andi	a5,a5,-3
    51b4:	06c2                	slli	a3,a3,0x10
    51b6:	01066633          	or	a2,a2,a6
    51ba:	8fd1                	or	a5,a5,a2
    51bc:	40013637          	lui	a2,0x40013
    51c0:	c0060613          	addi	a2,a2,-1024 # 40012c00 <_eusrstack+0x2000dd00>
    51c4:	82c1                	srli	a3,a3,0x10
    51c6:	02c51063          	bne	a0,a2,51e6 <TIM_OC1Init+0x5e>
    51ca:	25b2                	lhu	a2,10(a1)
    51cc:	9bdd                	andi	a5,a5,-9
    51ce:	00e5d803          	lhu	a6,14(a1)
    51d2:	8fd1                	or	a5,a5,a2
    51d4:	21d2                	lhu	a2,4(a1)
    51d6:	9bed                	andi	a5,a5,-5
    51d8:	cff6f693          	andi	a3,a3,-769
    51dc:	8fd1                	or	a5,a5,a2
    51de:	25d2                	lhu	a2,12(a1)
    51e0:	01066633          	or	a2,a2,a6
    51e4:	8ed1                	or	a3,a3,a2
    51e6:	a156                	sh	a3,4(a0)
    51e8:	ad1a                	sh	a4,24(a0)
    51ea:	21fa                	lhu	a4,6(a1)
    51ec:	b95a                	sh	a4,52(a0)
    51ee:	b11e                	sh	a5,32(a0)
    51f0:	8082                	ret

000051f2 <TIM_OC2Init>:
    51f2:	311e                	lhu	a5,32(a0)
    51f4:	76e5                	lui	a3,0xffff9
    51f6:	cff68693          	addi	a3,a3,-769 # ffff8cff <_eusrstack+0xdfff3dff>
    51fa:	07c2                	slli	a5,a5,0x10
    51fc:	83c1                	srli	a5,a5,0x10
    51fe:	9bbd                	andi	a5,a5,-17
    5200:	07c2                	slli	a5,a5,0x10
    5202:	83c1                	srli	a5,a5,0x10
    5204:	b11e                	sh	a5,32(a0)
    5206:	311e                	lhu	a5,32(a0)
    5208:	2152                	lhu	a2,4(a0)
    520a:	2d1a                	lhu	a4,24(a0)
    520c:	0085d803          	lhu	a6,8(a1)
    5210:	07c2                	slli	a5,a5,0x10
    5212:	8f75                	and	a4,a4,a3
    5214:	2196                	lhu	a3,0(a1)
    5216:	83c1                	srli	a5,a5,0x10
    5218:	fdf7f793          	andi	a5,a5,-33
    521c:	06a2                	slli	a3,a3,0x8
    521e:	8f55                	or	a4,a4,a3
    5220:	21b6                	lhu	a3,2(a1)
    5222:	0642                	slli	a2,a2,0x10
    5224:	0742                	slli	a4,a4,0x10
    5226:	0106e6b3          	or	a3,a3,a6
    522a:	0692                	slli	a3,a3,0x4
    522c:	8fd5                	or	a5,a5,a3
    522e:	400136b7          	lui	a3,0x40013
    5232:	07c2                	slli	a5,a5,0x10
    5234:	c0068693          	addi	a3,a3,-1024 # 40012c00 <_eusrstack+0x2000dd00>
    5238:	8241                	srli	a2,a2,0x10
    523a:	8341                	srli	a4,a4,0x10
    523c:	83c1                	srli	a5,a5,0x10
    523e:	02d51e63          	bne	a0,a3,527a <TIM_OC2Init+0x88>
    5242:	25b6                	lhu	a3,10(a1)
    5244:	f7f7f793          	andi	a5,a5,-129
    5248:	00c5d803          	lhu	a6,12(a1)
    524c:	0692                	slli	a3,a3,0x4
    524e:	8fd5                	or	a5,a5,a3
    5250:	21d6                	lhu	a3,4(a1)
    5252:	07c2                	slli	a5,a5,0x10
    5254:	83c1                	srli	a5,a5,0x10
    5256:	0692                	slli	a3,a3,0x4
    5258:	fbf7f793          	andi	a5,a5,-65
    525c:	8fd5                	or	a5,a5,a3
    525e:	76fd                	lui	a3,0xfffff
    5260:	3ff68693          	addi	a3,a3,1023 # fffff3ff <_eusrstack+0xdfffa4ff>
    5264:	8ef1                	and	a3,a3,a2
    5266:	25f2                	lhu	a2,14(a1)
    5268:	07c2                	slli	a5,a5,0x10
    526a:	83c1                	srli	a5,a5,0x10
    526c:	01066633          	or	a2,a2,a6
    5270:	060a                	slli	a2,a2,0x2
    5272:	8ed1                	or	a3,a3,a2
    5274:	01069613          	slli	a2,a3,0x10
    5278:	8241                	srli	a2,a2,0x10
    527a:	a152                	sh	a2,4(a0)
    527c:	ad1a                	sh	a4,24(a0)
    527e:	21fa                	lhu	a4,6(a1)
    5280:	bd1a                	sh	a4,56(a0)
    5282:	b11e                	sh	a5,32(a0)
    5284:	8082                	ret

00005286 <TIM_OC3Init>:
    5286:	311e                	lhu	a5,32(a0)
    5288:	2196                	lhu	a3,0(a1)
    528a:	0085d803          	lhu	a6,8(a1)
    528e:	07c2                	slli	a5,a5,0x10
    5290:	83c1                	srli	a5,a5,0x10
    5292:	eff7f793          	andi	a5,a5,-257
    5296:	07c2                	slli	a5,a5,0x10
    5298:	83c1                	srli	a5,a5,0x10
    529a:	b11e                	sh	a5,32(a0)
    529c:	311e                	lhu	a5,32(a0)
    529e:	2152                	lhu	a2,4(a0)
    52a0:	2d5a                	lhu	a4,28(a0)
    52a2:	07c2                	slli	a5,a5,0x10
    52a4:	83c1                	srli	a5,a5,0x10
    52a6:	0742                	slli	a4,a4,0x10
    52a8:	8341                	srli	a4,a4,0x10
    52aa:	f8c77713          	andi	a4,a4,-116
    52ae:	8f55                	or	a4,a4,a3
    52b0:	21b6                	lhu	a3,2(a1)
    52b2:	dff7f793          	andi	a5,a5,-513
    52b6:	0642                	slli	a2,a2,0x10
    52b8:	0106e6b3          	or	a3,a3,a6
    52bc:	06a2                	slli	a3,a3,0x8
    52be:	8fd5                	or	a5,a5,a3
    52c0:	400136b7          	lui	a3,0x40013
    52c4:	07c2                	slli	a5,a5,0x10
    52c6:	c0068693          	addi	a3,a3,-1024 # 40012c00 <_eusrstack+0x2000dd00>
    52ca:	8241                	srli	a2,a2,0x10
    52cc:	83c1                	srli	a5,a5,0x10
    52ce:	02d51f63          	bne	a0,a3,530c <TIM_OC3Init+0x86>
    52d2:	76fd                	lui	a3,0xfffff
    52d4:	7ff68693          	addi	a3,a3,2047 # fffff7ff <_eusrstack+0xdfffa8ff>
    52d8:	8ff5                	and	a5,a5,a3
    52da:	25b6                	lhu	a3,10(a1)
    52dc:	00c5d803          	lhu	a6,12(a1)
    52e0:	06a2                	slli	a3,a3,0x8
    52e2:	8fd5                	or	a5,a5,a3
    52e4:	21d6                	lhu	a3,4(a1)
    52e6:	07c2                	slli	a5,a5,0x10
    52e8:	83c1                	srli	a5,a5,0x10
    52ea:	06a2                	slli	a3,a3,0x8
    52ec:	bff7f793          	andi	a5,a5,-1025
    52f0:	8fd5                	or	a5,a5,a3
    52f2:	76f5                	lui	a3,0xffffd
    52f4:	16fd                	addi	a3,a3,-1 # ffffcfff <_eusrstack+0xdfff80ff>
    52f6:	8ef1                	and	a3,a3,a2
    52f8:	25f2                	lhu	a2,14(a1)
    52fa:	07c2                	slli	a5,a5,0x10
    52fc:	83c1                	srli	a5,a5,0x10
    52fe:	01066633          	or	a2,a2,a6
    5302:	0612                	slli	a2,a2,0x4
    5304:	8ed1                	or	a3,a3,a2
    5306:	01069613          	slli	a2,a3,0x10
    530a:	8241                	srli	a2,a2,0x10
    530c:	a152                	sh	a2,4(a0)
    530e:	ad5a                	sh	a4,28(a0)
    5310:	21fa                	lhu	a4,6(a1)
    5312:	bd5a                	sh	a4,60(a0)
    5314:	b11e                	sh	a5,32(a0)
    5316:	8082                	ret

00005318 <TIM_OC4Init>:
    5318:	311e                	lhu	a5,32(a0)
    531a:	777d                	lui	a4,0xfffff
    531c:	177d                	addi	a4,a4,-1 # ffffefff <_eusrstack+0xdfffa0ff>
    531e:	8ff9                	and	a5,a5,a4
    5320:	b11e                	sh	a5,32(a0)
    5322:	311a                	lhu	a4,32(a0)
    5324:	215e                	lhu	a5,4(a0)
    5326:	2d56                	lhu	a3,28(a0)
    5328:	7665                	lui	a2,0xffff9
    532a:	cff60613          	addi	a2,a2,-769 # ffff8cff <_eusrstack+0xdfff3dff>
    532e:	8ef1                	and	a3,a3,a2
    5330:	2192                	lhu	a2,0(a1)
    5332:	0085d803          	lhu	a6,8(a1)
    5336:	07c2                	slli	a5,a5,0x10
    5338:	0622                	slli	a2,a2,0x8
    533a:	8ed1                	or	a3,a3,a2
    533c:	7679                	lui	a2,0xffffe
    533e:	167d                	addi	a2,a2,-1 # ffffdfff <_eusrstack+0xdfff90ff>
    5340:	8f71                	and	a4,a4,a2
    5342:	21b2                	lhu	a2,2(a1)
    5344:	06c2                	slli	a3,a3,0x10
    5346:	83c1                	srli	a5,a5,0x10
    5348:	01066633          	or	a2,a2,a6
    534c:	0632                	slli	a2,a2,0xc
    534e:	8f51                	or	a4,a4,a2
    5350:	40013637          	lui	a2,0x40013
    5354:	0742                	slli	a4,a4,0x10
    5356:	c0060613          	addi	a2,a2,-1024 # 40012c00 <_eusrstack+0x2000dd00>
    535a:	82c1                	srli	a3,a3,0x10
    535c:	8341                	srli	a4,a4,0x10
    535e:	00c51a63          	bne	a0,a2,5372 <TIM_OC4Init+0x5a>
    5362:	7671                	lui	a2,0xffffc
    5364:	167d                	addi	a2,a2,-1 # ffffbfff <_eusrstack+0xdfff70ff>
    5366:	8ff1                	and	a5,a5,a2
    5368:	25d2                	lhu	a2,12(a1)
    536a:	061a                	slli	a2,a2,0x6
    536c:	8fd1                	or	a5,a5,a2
    536e:	07c2                	slli	a5,a5,0x10
    5370:	83c1                	srli	a5,a5,0x10
    5372:	a15e                	sh	a5,4(a0)
    5374:	21fe                	lhu	a5,6(a1)
    5376:	ad56                	sh	a3,28(a0)
    5378:	04f51023          	sh	a5,64(a0)
    537c:	b11a                	sh	a4,32(a0)
    537e:	8082                	ret

00005380 <TIM_BDTRConfig>:
    5380:	21ba                	lhu	a4,2(a1)
    5382:	219e                	lhu	a5,0(a1)
    5384:	8fd9                	or	a5,a5,a4
    5386:	21da                	lhu	a4,4(a1)
    5388:	8fd9                	or	a5,a5,a4
    538a:	21fa                	lhu	a4,6(a1)
    538c:	8fd9                	or	a5,a5,a4
    538e:	259a                	lhu	a4,8(a1)
    5390:	8fd9                	or	a5,a5,a4
    5392:	25ba                	lhu	a4,10(a1)
    5394:	8fd9                	or	a5,a5,a4
    5396:	25da                	lhu	a4,12(a1)
    5398:	8fd9                	or	a5,a5,a4
    539a:	04f51223          	sh	a5,68(a0)
    539e:	8082                	ret

000053a0 <TIM_Cmd>:
    53a0:	211e                	lhu	a5,0(a0)
    53a2:	c589                	beqz	a1,53ac <TIM_Cmd+0xc>
    53a4:	0017e793          	ori	a5,a5,1
    53a8:	a11e                	sh	a5,0(a0)
    53aa:	8082                	ret
    53ac:	07c2                	slli	a5,a5,0x10
    53ae:	83c1                	srli	a5,a5,0x10
    53b0:	9bf9                	andi	a5,a5,-2
    53b2:	07c2                	slli	a5,a5,0x10
    53b4:	83c1                	srli	a5,a5,0x10
    53b6:	bfcd                	j	53a8 <TIM_Cmd+0x8>

000053b8 <TIM_CtrlPWMOutputs>:
    53b8:	04455783          	lhu	a5,68(a0)
    53bc:	c591                	beqz	a1,53c8 <TIM_CtrlPWMOutputs+0x10>
    53be:	6721                	lui	a4,0x8
    53c0:	8fd9                	or	a5,a5,a4
    53c2:	04f51223          	sh	a5,68(a0)
    53c6:	8082                	ret
    53c8:	07c6                	slli	a5,a5,0x11
    53ca:	83c5                	srli	a5,a5,0x11
    53cc:	bfdd                	j	53c2 <TIM_CtrlPWMOutputs+0xa>

000053ce <TIM_ITConfig>:
    53ce:	255e                	lhu	a5,12(a0)
    53d0:	c601                	beqz	a2,53d8 <TIM_ITConfig+0xa>
    53d2:	8fcd                	or	a5,a5,a1
    53d4:	a55e                	sh	a5,12(a0)
    53d6:	8082                	ret
    53d8:	fff5c593          	not	a1,a1
    53dc:	8fed                	and	a5,a5,a1
    53de:	bfdd                	j	53d4 <TIM_ITConfig+0x6>

000053e0 <TIM_GenerateEvent>:
    53e0:	a94e                	sh	a1,20(a0)
    53e2:	8082                	ret

000053e4 <TIM_DMACmd>:
    53e4:	febff06f          	j	53ce <TIM_ITConfig>

000053e8 <TIM_ARRPreloadConfig>:
    53e8:	211e                	lhu	a5,0(a0)
    53ea:	c589                	beqz	a1,53f4 <TIM_ARRPreloadConfig+0xc>
    53ec:	0807e793          	ori	a5,a5,128
    53f0:	a11e                	sh	a5,0(a0)
    53f2:	8082                	ret
    53f4:	07c2                	slli	a5,a5,0x10
    53f6:	83c1                	srli	a5,a5,0x10
    53f8:	f7f7f793          	andi	a5,a5,-129
    53fc:	07c2                	slli	a5,a5,0x10
    53fe:	83c1                	srli	a5,a5,0x10
    5400:	bfc5                	j	53f0 <TIM_ARRPreloadConfig+0x8>

00005402 <TIM_OC1PreloadConfig>:
    5402:	2d1e                	lhu	a5,24(a0)
    5404:	07c2                	slli	a5,a5,0x10
    5406:	83c1                	srli	a5,a5,0x10
    5408:	9bdd                	andi	a5,a5,-9
    540a:	8fcd                	or	a5,a5,a1
    540c:	ad1e                	sh	a5,24(a0)
    540e:	8082                	ret

00005410 <TIM_OC2PreloadConfig>:
    5410:	2d1e                	lhu	a5,24(a0)
    5412:	777d                	lui	a4,0xfffff
    5414:	7ff70713          	addi	a4,a4,2047 # fffff7ff <_eusrstack+0xdfffa8ff>
    5418:	8ff9                	and	a5,a5,a4
    541a:	05a2                	slli	a1,a1,0x8
    541c:	8fcd                	or	a5,a5,a1
    541e:	07c2                	slli	a5,a5,0x10
    5420:	83c1                	srli	a5,a5,0x10
    5422:	ad1e                	sh	a5,24(a0)
    5424:	8082                	ret

00005426 <TIM_OC3PreloadConfig>:
    5426:	2d5e                	lhu	a5,28(a0)
    5428:	07c2                	slli	a5,a5,0x10
    542a:	83c1                	srli	a5,a5,0x10
    542c:	9bdd                	andi	a5,a5,-9
    542e:	8fcd                	or	a5,a5,a1
    5430:	ad5e                	sh	a5,28(a0)
    5432:	8082                	ret

00005434 <TIM_OC4PreloadConfig>:
    5434:	2d5e                	lhu	a5,28(a0)
    5436:	777d                	lui	a4,0xfffff
    5438:	7ff70713          	addi	a4,a4,2047 # fffff7ff <_eusrstack+0xdfffa8ff>
    543c:	8ff9                	and	a5,a5,a4
    543e:	05a2                	slli	a1,a1,0x8
    5440:	8fcd                	or	a5,a5,a1
    5442:	07c2                	slli	a5,a5,0x10
    5444:	83c1                	srli	a5,a5,0x10
    5446:	ad5e                	sh	a5,28(a0)
    5448:	8082                	ret

0000544a <TIM_OC1FastConfig>:
    544a:	2d1e                	lhu	a5,24(a0)
    544c:	07c2                	slli	a5,a5,0x10
    544e:	83c1                	srli	a5,a5,0x10
    5450:	9bed                	andi	a5,a5,-5
    5452:	8fcd                	or	a5,a5,a1
    5454:	ad1e                	sh	a5,24(a0)
    5456:	8082                	ret

00005458 <TIM_OC2FastConfig>:
    5458:	2d1e                	lhu	a5,24(a0)
    545a:	05a2                	slli	a1,a1,0x8
    545c:	07c2                	slli	a5,a5,0x10
    545e:	83c1                	srli	a5,a5,0x10
    5460:	bff7f793          	andi	a5,a5,-1025
    5464:	8fcd                	or	a5,a5,a1
    5466:	07c2                	slli	a5,a5,0x10
    5468:	83c1                	srli	a5,a5,0x10
    546a:	ad1e                	sh	a5,24(a0)
    546c:	8082                	ret

0000546e <TIM_OC3FastConfig>:
    546e:	2d5e                	lhu	a5,28(a0)
    5470:	07c2                	slli	a5,a5,0x10
    5472:	83c1                	srli	a5,a5,0x10
    5474:	9bed                	andi	a5,a5,-5
    5476:	8fcd                	or	a5,a5,a1
    5478:	ad5e                	sh	a5,28(a0)
    547a:	8082                	ret

0000547c <TIM_OC4FastConfig>:
    547c:	2d5e                	lhu	a5,28(a0)
    547e:	05a2                	slli	a1,a1,0x8
    5480:	07c2                	slli	a5,a5,0x10
    5482:	83c1                	srli	a5,a5,0x10
    5484:	bff7f793          	andi	a5,a5,-1025
    5488:	8fcd                	or	a5,a5,a1
    548a:	07c2                	slli	a5,a5,0x10
    548c:	83c1                	srli	a5,a5,0x10
    548e:	ad5e                	sh	a5,28(a0)
    5490:	8082                	ret

00005492 <TIM_CCxCmd>:
    5492:	311a                	lhu	a4,32(a0)
    5494:	4785                	li	a5,1
    5496:	00b797b3          	sll	a5,a5,a1
    549a:	fff7c793          	not	a5,a5
    549e:	8ff9                	and	a5,a5,a4
    54a0:	b11e                	sh	a5,32(a0)
    54a2:	311e                	lhu	a5,32(a0)
    54a4:	00b61633          	sll	a2,a2,a1
    54a8:	8fd1                	or	a5,a5,a2
    54aa:	07c2                	slli	a5,a5,0x10
    54ac:	83c1                	srli	a5,a5,0x10
    54ae:	b11e                	sh	a5,32(a0)
    54b0:	8082                	ret

000054b2 <TIM_CCxNCmd>:
    54b2:	311a                	lhu	a4,32(a0)
    54b4:	4791                	li	a5,4
    54b6:	00b797b3          	sll	a5,a5,a1
    54ba:	fff7c793          	not	a5,a5
    54be:	8ff9                	and	a5,a5,a4
    54c0:	b11e                	sh	a5,32(a0)
    54c2:	311e                	lhu	a5,32(a0)
    54c4:	00b61633          	sll	a2,a2,a1
    54c8:	8fd1                	or	a5,a5,a2
    54ca:	07c2                	slli	a5,a5,0x10
    54cc:	83c1                	srli	a5,a5,0x10
    54ce:	b11e                	sh	a5,32(a0)
    54d0:	8082                	ret

000054d2 <TIM_SelectOutputTrigger>:
    54d2:	215e                	lhu	a5,4(a0)
    54d4:	07c2                	slli	a5,a5,0x10
    54d6:	83c1                	srli	a5,a5,0x10
    54d8:	f8f7f793          	andi	a5,a5,-113
    54dc:	07c2                	slli	a5,a5,0x10
    54de:	83c1                	srli	a5,a5,0x10
    54e0:	a15e                	sh	a5,4(a0)
    54e2:	215e                	lhu	a5,4(a0)
    54e4:	8fcd                	or	a5,a5,a1
    54e6:	a15e                	sh	a5,4(a0)
    54e8:	8082                	ret

000054ea <TIM_SetIC1Prescaler>:
    54ea:	2d1e                	lhu	a5,24(a0)
    54ec:	07c2                	slli	a5,a5,0x10
    54ee:	83c1                	srli	a5,a5,0x10
    54f0:	9bcd                	andi	a5,a5,-13
    54f2:	07c2                	slli	a5,a5,0x10
    54f4:	83c1                	srli	a5,a5,0x10
    54f6:	ad1e                	sh	a5,24(a0)
    54f8:	2d1e                	lhu	a5,24(a0)
    54fa:	8fcd                	or	a5,a5,a1
    54fc:	ad1e                	sh	a5,24(a0)
    54fe:	8082                	ret

00005500 <TIM_SetIC2Prescaler>:
    5500:	2d1e                	lhu	a5,24(a0)
    5502:	777d                	lui	a4,0xfffff
    5504:	3ff70713          	addi	a4,a4,1023 # fffff3ff <_eusrstack+0xdfffa4ff>
    5508:	8ff9                	and	a5,a5,a4
    550a:	ad1e                	sh	a5,24(a0)
    550c:	2d1e                	lhu	a5,24(a0)
    550e:	05a2                	slli	a1,a1,0x8
    5510:	8fcd                	or	a5,a5,a1
    5512:	07c2                	slli	a5,a5,0x10
    5514:	83c1                	srli	a5,a5,0x10
    5516:	ad1e                	sh	a5,24(a0)
    5518:	8082                	ret

0000551a <TIM_SetIC3Prescaler>:
    551a:	2d5e                	lhu	a5,28(a0)
    551c:	07c2                	slli	a5,a5,0x10
    551e:	83c1                	srli	a5,a5,0x10
    5520:	9bcd                	andi	a5,a5,-13
    5522:	07c2                	slli	a5,a5,0x10
    5524:	83c1                	srli	a5,a5,0x10
    5526:	ad5e                	sh	a5,28(a0)
    5528:	2d5e                	lhu	a5,28(a0)
    552a:	8fcd                	or	a5,a5,a1
    552c:	ad5e                	sh	a5,28(a0)
    552e:	8082                	ret

00005530 <TIM_SetIC4Prescaler>:
    5530:	2d5e                	lhu	a5,28(a0)
    5532:	777d                	lui	a4,0xfffff
    5534:	3ff70713          	addi	a4,a4,1023 # fffff3ff <_eusrstack+0xdfffa4ff>
    5538:	8ff9                	and	a5,a5,a4
    553a:	ad5e                	sh	a5,28(a0)
    553c:	2d5e                	lhu	a5,28(a0)
    553e:	05a2                	slli	a1,a1,0x8
    5540:	8fcd                	or	a5,a5,a1
    5542:	07c2                	slli	a5,a5,0x10
    5544:	83c1                	srli	a5,a5,0x10
    5546:	ad5e                	sh	a5,28(a0)
    5548:	8082                	ret

0000554a <TIM_ICInit>:
    554a:	cb3fb2ef          	jal	t0,11fc <__riscv_save_0>
    554e:	219a                	lhu	a4,0(a1)
    5550:	21be                	lhu	a5,2(a1)
    5552:	21d2                	lhu	a2,4(a1)
    5554:	2596                	lhu	a3,8(a1)
    5556:	842a                	mv	s0,a0
    5558:	84ae                	mv	s1,a1
    555a:	eb11                	bnez	a4,556e <TIM_ICInit+0x24>
    555c:	85be                	mv	a1,a5
    555e:	ad3ff0ef          	jal	ra,5030 <TI1_Config>
    5562:	20ee                	lhu	a1,6(s1)
    5564:	8522                	mv	a0,s0
    5566:	f85ff0ef          	jal	ra,54ea <TIM_SetIC1Prescaler>
    556a:	cb7fb06f          	j	1220 <__riscv_restore_0>
    556e:	4591                	li	a1,4
    5570:	00b71a63          	bne	a4,a1,5584 <TIM_ICInit+0x3a>
    5574:	85be                	mv	a1,a5
    5576:	b25ff0ef          	jal	ra,509a <TI2_Config>
    557a:	20ee                	lhu	a1,6(s1)
    557c:	8522                	mv	a0,s0
    557e:	f83ff0ef          	jal	ra,5500 <TIM_SetIC2Prescaler>
    5582:	b7e5                	j	556a <TIM_ICInit+0x20>
    5584:	4521                	li	a0,8
    5586:	20ee                	lhu	a1,6(s1)
    5588:	08a71863          	bne	a4,a0,5618 <TIM_ICInit+0xce>
    558c:	301a                	lhu	a4,32(s0)
    558e:	0692                	slli	a3,a3,0x4
    5590:	00879813          	slli	a6,a5,0x8
    5594:	0742                	slli	a4,a4,0x10
    5596:	8341                	srli	a4,a4,0x10
    5598:	eff77713          	andi	a4,a4,-257
    559c:	0742                	slli	a4,a4,0x10
    559e:	8341                	srli	a4,a4,0x10
    55a0:	b01a                	sh	a4,32(s0)
    55a2:	2c4a                	lhu	a0,28(s0)
    55a4:	301a                	lhu	a4,32(s0)
    55a6:	0842                	slli	a6,a6,0x10
    55a8:	0542                	slli	a0,a0,0x10
    55aa:	8141                	srli	a0,a0,0x10
    55ac:	f0c57513          	andi	a0,a0,-244
    55b0:	8d51                	or	a0,a0,a2
    55b2:	8d55                	or	a0,a0,a3
    55b4:	400136b7          	lui	a3,0x40013
    55b8:	0742                	slli	a4,a4,0x10
    55ba:	0542                	slli	a0,a0,0x10
    55bc:	c0068693          	addi	a3,a3,-1024 # 40012c00 <_eusrstack+0x2000dd00>
    55c0:	8341                	srli	a4,a4,0x10
    55c2:	01085813          	srli	a6,a6,0x10
    55c6:	8141                	srli	a0,a0,0x10
    55c8:	02d40463          	beq	s0,a3,55f0 <TIM_ICInit+0xa6>
    55cc:	400006b7          	lui	a3,0x40000
    55d0:	02d40063          	beq	s0,a3,55f0 <TIM_ICInit+0xa6>
    55d4:	40068693          	addi	a3,a3,1024 # 40000400 <_eusrstack+0x1fffb500>
    55d8:	00d40c63          	beq	s0,a3,55f0 <TIM_ICInit+0xa6>
    55dc:	400016b7          	lui	a3,0x40001
    55e0:	80068613          	addi	a2,a3,-2048 # 40000800 <_eusrstack+0x1fffb900>
    55e4:	00c40663          	beq	s0,a2,55f0 <TIM_ICInit+0xa6>
    55e8:	c0068693          	addi	a3,a3,-1024
    55ec:	00d41e63          	bne	s0,a3,5608 <TIM_ICInit+0xbe>
    55f0:	dff77713          	andi	a4,a4,-513
    55f4:	00e86833          	or	a6,a6,a4
    55f8:	10086713          	ori	a4,a6,256
    55fc:	ac4a                	sh	a0,28(s0)
    55fe:	b01a                	sh	a4,32(s0)
    5600:	8522                	mv	a0,s0
    5602:	f19ff0ef          	jal	ra,551a <TIM_SetIC3Prescaler>
    5606:	b795                	j	556a <TIM_ICInit+0x20>
    5608:	76fd                	lui	a3,0xfffff
    560a:	5ff68693          	addi	a3,a3,1535 # fffff5ff <_eusrstack+0xdfffa6ff>
    560e:	8f75                	and	a4,a4,a3
    5610:	8f5d                	or	a4,a4,a5
    5612:	10076713          	ori	a4,a4,256
    5616:	b7dd                	j	55fc <TIM_ICInit+0xb2>
    5618:	301a                	lhu	a4,32(s0)
    561a:	757d                	lui	a0,0xfffff
    561c:	157d                	addi	a0,a0,-1 # ffffefff <_eusrstack+0xdfffa0ff>
    561e:	8f69                	and	a4,a4,a0
    5620:	b01a                	sh	a4,32(s0)
    5622:	2c4a                	lhu	a0,28(s0)
    5624:	6885                	lui	a7,0x1
    5626:	06b2                	slli	a3,a3,0xc
    5628:	301a                	lhu	a4,32(s0)
    562a:	cff88893          	addi	a7,a7,-769 # cff <__stack_size+0x4ff>
    562e:	0622                	slli	a2,a2,0x8
    5630:	8e55                	or	a2,a2,a3
    5632:	01157533          	and	a0,a0,a7
    5636:	00c79813          	slli	a6,a5,0xc
    563a:	8d51                	or	a0,a0,a2
    563c:	400136b7          	lui	a3,0x40013
    5640:	0742                	slli	a4,a4,0x10
    5642:	0842                	slli	a6,a6,0x10
    5644:	0542                	slli	a0,a0,0x10
    5646:	c0068693          	addi	a3,a3,-1024 # 40012c00 <_eusrstack+0x2000dd00>
    564a:	8341                	srli	a4,a4,0x10
    564c:	01085813          	srli	a6,a6,0x10
    5650:	8141                	srli	a0,a0,0x10
    5652:	02d40463          	beq	s0,a3,567a <TIM_ICInit+0x130>
    5656:	400006b7          	lui	a3,0x40000
    565a:	02d40063          	beq	s0,a3,567a <TIM_ICInit+0x130>
    565e:	40068693          	addi	a3,a3,1024 # 40000400 <_eusrstack+0x1fffb500>
    5662:	00d40c63          	beq	s0,a3,567a <TIM_ICInit+0x130>
    5666:	400016b7          	lui	a3,0x40001
    566a:	80068613          	addi	a2,a3,-2048 # 40000800 <_eusrstack+0x1fffb900>
    566e:	00c40663          	beq	s0,a2,567a <TIM_ICInit+0x130>
    5672:	c0068693          	addi	a3,a3,-1024
    5676:	02d41063          	bne	s0,a3,5696 <TIM_ICInit+0x14c>
    567a:	77f9                	lui	a5,0xffffe
    567c:	17fd                	addi	a5,a5,-1 # ffffdfff <_eusrstack+0xdfff90ff>
    567e:	8f7d                	and	a4,a4,a5
    5680:	00e86833          	or	a6,a6,a4
    5684:	6785                	lui	a5,0x1
    5686:	00f867b3          	or	a5,a6,a5
    568a:	ac4a                	sh	a0,28(s0)
    568c:	b01e                	sh	a5,32(s0)
    568e:	8522                	mv	a0,s0
    5690:	ea1ff0ef          	jal	ra,5530 <TIM_SetIC4Prescaler>
    5694:	bdd9                	j	556a <TIM_ICInit+0x20>
    5696:	66a1                	lui	a3,0x8
    5698:	dff68693          	addi	a3,a3,-513 # 7dff <_data_lma+0x1807>
    569c:	8f75                	and	a4,a4,a3
    569e:	8fd9                	or	a5,a5,a4
    56a0:	6705                	lui	a4,0x1
    56a2:	8fd9                	or	a5,a5,a4
    56a4:	b7dd                	j	568a <TIM_ICInit+0x140>

000056a6 <TIM_GetITStatus>:
    56a6:	291e                	lhu	a5,16(a0)
    56a8:	254a                	lhu	a0,12(a0)
    56aa:	8fed                	and	a5,a5,a1
    56ac:	0542                	slli	a0,a0,0x10
    56ae:	8141                	srli	a0,a0,0x10
    56b0:	c789                	beqz	a5,56ba <TIM_GetITStatus+0x14>
    56b2:	8d6d                	and	a0,a0,a1
    56b4:	00a03533          	snez	a0,a0
    56b8:	8082                	ret
    56ba:	4501                	li	a0,0
    56bc:	8082                	ret

000056be <TIM_ClearITPendingBit>:
    56be:	fff5c593          	not	a1,a1
    56c2:	05c2                	slli	a1,a1,0x10
    56c4:	81c1                	srli	a1,a1,0x10
    56c6:	a90e                	sh	a1,16(a0)
    56c8:	8082                	ret

000056ca <USART_DMACmd>:
    56ca:	295e                	lhu	a5,20(a0)
    56cc:	c601                	beqz	a2,56d4 <USART_DMACmd+0xa>
    56ce:	8fcd                	or	a5,a5,a1
    56d0:	a95e                	sh	a5,20(a0)
    56d2:	8082                	ret
    56d4:	fff5c593          	not	a1,a1
    56d8:	8fed                	and	a5,a5,a1
    56da:	bfdd                	j	56d0 <USART_DMACmd+0x6>

000056dc <__addsf3>:
    56dc:	00800737          	lui	a4,0x800
    56e0:	1141                	addi	sp,sp,-16
    56e2:	177d                	addi	a4,a4,-1 # 7fffff <_data_lma+0x7f9a07>
    56e4:	01755693          	srli	a3,a0,0x17
    56e8:	0175d613          	srli	a2,a1,0x17
    56ec:	00a777b3          	and	a5,a4,a0
    56f0:	c226                	sw	s1,4(sp)
    56f2:	8f6d                	and	a4,a4,a1
    56f4:	c04a                	sw	s2,0(sp)
    56f6:	0ff67613          	zext.b	a2,a2
    56fa:	0ff6f913          	zext.b	s2,a3
    56fe:	c606                	sw	ra,12(sp)
    5700:	c422                	sw	s0,8(sp)
    5702:	01f55493          	srli	s1,a0,0x1f
    5706:	81fd                	srli	a1,a1,0x1f
    5708:	078e                	slli	a5,a5,0x3
    570a:	070e                	slli	a4,a4,0x3
    570c:	40c906b3          	sub	a3,s2,a2
    5710:	04b48163          	beq	s1,a1,5752 <__addsf3+0x76>
    5714:	00d05f63          	blez	a3,5732 <__addsf3+0x56>
    5718:	ee31                	bnez	a2,5774 <__addsf3+0x98>
    571a:	12070163          	beqz	a4,583c <__addsf3+0x160>
    571e:	fff68613          	addi	a2,a3,-1
    5722:	2a060e63          	beqz	a2,59de <__addsf3+0x302>
    5726:	0ff00593          	li	a1,255
    572a:	16b68b63          	beq	a3,a1,58a0 <__addsf3+0x1c4>
    572e:	86b2                	mv	a3,a2
    5730:	a889                	j	5782 <__addsf3+0xa6>
    5732:	c2f1                	beqz	a3,57f6 <__addsf3+0x11a>
    5734:	412606b3          	sub	a3,a2,s2
    5738:	1c091c63          	bnez	s2,5910 <__addsf3+0x234>
    573c:	cff5                	beqz	a5,5838 <__addsf3+0x15c>
    573e:	fff68513          	addi	a0,a3,-1
    5742:	2c050963          	beqz	a0,5a14 <__addsf3+0x338>
    5746:	0ff00813          	li	a6,255
    574a:	15068963          	beq	a3,a6,589c <__addsf3+0x1c0>
    574e:	86aa                	mv	a3,a0
    5750:	a2f9                	j	591e <__addsf3+0x242>
    5752:	8826                	mv	a6,s1
    5754:	14d05863          	blez	a3,58a4 <__addsf3+0x1c8>
    5758:	c669                	beqz	a2,5822 <__addsf3+0x146>
    575a:	0ff00613          	li	a2,255
    575e:	14c90163          	beq	s2,a2,58a0 <__addsf3+0x1c4>
    5762:	04000637          	lui	a2,0x4000
    5766:	8f51                	or	a4,a4,a2
    5768:	466d                	li	a2,27
    576a:	1ed65963          	bge	a2,a3,595c <__addsf3+0x280>
    576e:	0785                	addi	a5,a5,1 # 1001 <_sinit+0x1>
    5770:	86ca                	mv	a3,s2
    5772:	a089                	j	57b4 <__addsf3+0xd8>
    5774:	0ff00613          	li	a2,255
    5778:	12c90463          	beq	s2,a2,58a0 <__addsf3+0x1c4>
    577c:	04000637          	lui	a2,0x4000
    5780:	8f51                	or	a4,a4,a2
    5782:	45ed                	li	a1,27
    5784:	4605                	li	a2,1
    5786:	00d5cd63          	blt	a1,a3,57a0 <__addsf3+0xc4>
    578a:	02000613          	li	a2,32
    578e:	8e15                	sub	a2,a2,a3
    5790:	00c71633          	sll	a2,a4,a2
    5794:	00d756b3          	srl	a3,a4,a3
    5798:	00c03733          	snez	a4,a2
    579c:	00e6e633          	or	a2,a3,a4
    57a0:	8f91                	sub	a5,a5,a2
    57a2:	04000737          	lui	a4,0x4000
    57a6:	00e7f6b3          	and	a3,a5,a4
    57aa:	eacd                	bnez	a3,585c <__addsf3+0x180>
    57ac:	0077f713          	andi	a4,a5,7
    57b0:	86ca                	mv	a3,s2
    57b2:	c749                	beqz	a4,583c <__addsf3+0x160>
    57b4:	00f7f713          	andi	a4,a5,15
    57b8:	4611                	li	a2,4
    57ba:	00c70363          	beq	a4,a2,57c0 <__addsf3+0xe4>
    57be:	0791                	addi	a5,a5,4
    57c0:	04000737          	lui	a4,0x4000
    57c4:	8f7d                	and	a4,a4,a5
    57c6:	cb3d                	beqz	a4,583c <__addsf3+0x160>
    57c8:	00168513          	addi	a0,a3,1
    57cc:	0ff00713          	li	a4,255
    57d0:	8826                	mv	a6,s1
    57d2:	08e50163          	beq	a0,a4,5854 <__addsf3+0x178>
    57d6:	00679713          	slli	a4,a5,0x6
    57da:	0ff57513          	zext.b	a0,a0
    57de:	8325                	srli	a4,a4,0x9
    57e0:	40b2                	lw	ra,12(sp)
    57e2:	4422                	lw	s0,8(sp)
    57e4:	055e                	slli	a0,a0,0x17
    57e6:	8d59                	or	a0,a0,a4
    57e8:	01f81793          	slli	a5,a6,0x1f
    57ec:	4492                	lw	s1,4(sp)
    57ee:	4902                	lw	s2,0(sp)
    57f0:	8d5d                	or	a0,a0,a5
    57f2:	0141                	addi	sp,sp,16
    57f4:	8082                	ret
    57f6:	00190613          	addi	a2,s2,1
    57fa:	0fe67613          	andi	a2,a2,254
    57fe:	14061463          	bnez	a2,5946 <__addsf3+0x26a>
    5802:	08091a63          	bnez	s2,5896 <__addsf3+0x1ba>
    5806:	20078363          	beqz	a5,5a0c <__addsf3+0x330>
    580a:	cb75                	beqz	a4,58fe <__addsf3+0x222>
    580c:	40e78533          	sub	a0,a5,a4
    5810:	04000637          	lui	a2,0x4000
    5814:	8e69                	and	a2,a2,a0
    5816:	22060363          	beqz	a2,5a3c <__addsf3+0x360>
    581a:	40f707b3          	sub	a5,a4,a5
    581e:	84ae                	mv	s1,a1
    5820:	a0bd                	j	588e <__addsf3+0x1b2>
    5822:	cf09                	beqz	a4,583c <__addsf3+0x160>
    5824:	fff68613          	addi	a2,a3,-1
    5828:	1a060363          	beqz	a2,59ce <__addsf3+0x2f2>
    582c:	0ff00593          	li	a1,255
    5830:	06b68863          	beq	a3,a1,58a0 <__addsf3+0x1c4>
    5834:	86b2                	mv	a3,a2
    5836:	bf0d                	j	5768 <__addsf3+0x8c>
    5838:	84ae                	mv	s1,a1
    583a:	87ba                	mv	a5,a4
    583c:	0ff00713          	li	a4,255
    5840:	838d                	srli	a5,a5,0x3
    5842:	0ce69063          	bne	a3,a4,5902 <__addsf3+0x226>
    5846:	cfc1                	beqz	a5,58de <__addsf3+0x202>
    5848:	4801                	li	a6,0
    584a:	0ff00513          	li	a0,255
    584e:	00400737          	lui	a4,0x400
    5852:	b779                	j	57e0 <__addsf3+0x104>
    5854:	0ff00513          	li	a0,255
    5858:	4701                	li	a4,0
    585a:	b759                	j	57e0 <__addsf3+0x104>
    585c:	177d                	addi	a4,a4,-1 # 3fffff <_data_lma+0x3f9a07>
    585e:	00e7f433          	and	s0,a5,a4
    5862:	8522                	mv	a0,s0
    5864:	307000ef          	jal	ra,636a <__clzsi2>
    5868:	156d                	addi	a0,a0,-5
    586a:	00a41433          	sll	s0,s0,a0
    586e:	07254163          	blt	a0,s2,58d0 <__addsf3+0x1f4>
    5872:	412506b3          	sub	a3,a0,s2
    5876:	0685                	addi	a3,a3,1
    5878:	02000793          	li	a5,32
    587c:	8f95                	sub	a5,a5,a3
    587e:	00f417b3          	sll	a5,s0,a5
    5882:	00f037b3          	snez	a5,a5
    5886:	00d45433          	srl	s0,s0,a3
    588a:	8fc1                	or	a5,a5,s0
    588c:	4681                	li	a3,0
    588e:	0077f713          	andi	a4,a5,7
    5892:	f30d                	bnez	a4,57b4 <__addsf3+0xd8>
    5894:	b735                	j	57c0 <__addsf3+0xe4>
    5896:	14079963          	bnez	a5,59e8 <__addsf3+0x30c>
    589a:	d75d                	beqz	a4,5848 <__addsf3+0x16c>
    589c:	84ae                	mv	s1,a1
    589e:	87ba                	mv	a5,a4
    58a0:	838d                	srli	a5,a5,0x3
    58a2:	b755                	j	5846 <__addsf3+0x16a>
    58a4:	c2b1                	beqz	a3,58e8 <__addsf3+0x20c>
    58a6:	412606b3          	sub	a3,a2,s2
    58aa:	0e091963          	bnez	s2,599c <__addsf3+0x2c0>
    58ae:	d7d1                	beqz	a5,583a <__addsf3+0x15e>
    58b0:	fff68593          	addi	a1,a3,-1
    58b4:	10058d63          	beqz	a1,59ce <__addsf3+0x2f2>
    58b8:	0ff00513          	li	a0,255
    58bc:	fea681e3          	beq	a3,a0,589e <__addsf3+0x1c2>
    58c0:	86ae                	mv	a3,a1
    58c2:	45ed                	li	a1,27
    58c4:	12d5d663          	bge	a1,a3,59f0 <__addsf3+0x314>
    58c8:	00170793          	addi	a5,a4,1
    58cc:	86b2                	mv	a3,a2
    58ce:	b5dd                	j	57b4 <__addsf3+0xd8>
    58d0:	fc0007b7          	lui	a5,0xfc000
    58d4:	17fd                	addi	a5,a5,-1 # fbffffff <_eusrstack+0xdbffb0ff>
    58d6:	40a906b3          	sub	a3,s2,a0
    58da:	8fe1                	and	a5,a5,s0
    58dc:	bf4d                	j	588e <__addsf3+0x1b2>
    58de:	8826                	mv	a6,s1
    58e0:	0ff00513          	li	a0,255
    58e4:	4701                	li	a4,0
    58e6:	bded                	j	57e0 <__addsf3+0x104>
    58e8:	00190693          	addi	a3,s2,1
    58ec:	0fe6f613          	andi	a2,a3,254
    58f0:	ee55                	bnez	a2,59ac <__addsf3+0x2d0>
    58f2:	0e091963          	bnez	s2,59e4 <__addsf3+0x308>
    58f6:	12078463          	beqz	a5,5a1e <__addsf3+0x342>
    58fa:	12071463          	bnez	a4,5a22 <__addsf3+0x346>
    58fe:	838d                	srli	a5,a5,0x3
    5900:	4681                	li	a3,0
    5902:	07a6                	slli	a5,a5,0x9
    5904:	0097d713          	srli	a4,a5,0x9
    5908:	0ff6f513          	zext.b	a0,a3
    590c:	8826                	mv	a6,s1
    590e:	bdc9                	j	57e0 <__addsf3+0x104>
    5910:	0ff00513          	li	a0,255
    5914:	f8a604e3          	beq	a2,a0,589c <__addsf3+0x1c0>
    5918:	04000537          	lui	a0,0x4000
    591c:	8fc9                	or	a5,a5,a0
    591e:	486d                	li	a6,27
    5920:	4505                	li	a0,1
    5922:	00d84d63          	blt	a6,a3,593c <__addsf3+0x260>
    5926:	02000513          	li	a0,32
    592a:	8d15                	sub	a0,a0,a3
    592c:	00a79533          	sll	a0,a5,a0
    5930:	00d7d6b3          	srl	a3,a5,a3
    5934:	00a037b3          	snez	a5,a0
    5938:	00f6e533          	or	a0,a3,a5
    593c:	40a707b3          	sub	a5,a4,a0
    5940:	8932                	mv	s2,a2
    5942:	84ae                	mv	s1,a1
    5944:	bdb9                	j	57a2 <__addsf3+0xc6>
    5946:	40e78433          	sub	s0,a5,a4
    594a:	040006b7          	lui	a3,0x4000
    594e:	8ee1                	and	a3,a3,s0
    5950:	eabd                	bnez	a3,59c6 <__addsf3+0x2ea>
    5952:	f801                	bnez	s0,5862 <__addsf3+0x186>
    5954:	4801                	li	a6,0
    5956:	4501                	li	a0,0
    5958:	4701                	li	a4,0
    595a:	b559                	j	57e0 <__addsf3+0x104>
    595c:	02000613          	li	a2,32
    5960:	8e15                	sub	a2,a2,a3
    5962:	00c71633          	sll	a2,a4,a2
    5966:	00d75733          	srl	a4,a4,a3
    596a:	00c036b3          	snez	a3,a2
    596e:	8f55                	or	a4,a4,a3
    5970:	97ba                	add	a5,a5,a4
    5972:	04000737          	lui	a4,0x4000
    5976:	8f7d                	and	a4,a4,a5
    5978:	e2070ae3          	beqz	a4,57ac <__addsf3+0xd0>
    597c:	00190693          	addi	a3,s2,1
    5980:	0ff00513          	li	a0,255
    5984:	4701                	li	a4,0
    5986:	e4a68de3          	beq	a3,a0,57e0 <__addsf3+0x104>
    598a:	7e000637          	lui	a2,0x7e000
    598e:	0017d713          	srli	a4,a5,0x1
    5992:	167d                	addi	a2,a2,-1 # 7dffffff <_eusrstack+0x5dffb0ff>
    5994:	8b85                	andi	a5,a5,1
    5996:	8f71                	and	a4,a4,a2
    5998:	8fd9                	or	a5,a5,a4
    599a:	bdd5                	j	588e <__addsf3+0x1b2>
    599c:	0ff00593          	li	a1,255
    59a0:	eeb60fe3          	beq	a2,a1,589e <__addsf3+0x1c2>
    59a4:	040005b7          	lui	a1,0x4000
    59a8:	8fcd                	or	a5,a5,a1
    59aa:	bf21                	j	58c2 <__addsf3+0x1e6>
    59ac:	0ff00613          	li	a2,255
    59b0:	eac682e3          	beq	a3,a2,5854 <__addsf3+0x178>
    59b4:	973e                	add	a4,a4,a5
    59b6:	00175793          	srli	a5,a4,0x1
    59ba:	0077f613          	andi	a2,a5,7
    59be:	de061be3          	bnez	a2,57b4 <__addsf3+0xd8>
    59c2:	838d                	srli	a5,a5,0x3
    59c4:	bf3d                	j	5902 <__addsf3+0x226>
    59c6:	40f70433          	sub	s0,a4,a5
    59ca:	84ae                	mv	s1,a1
    59cc:	bd59                	j	5862 <__addsf3+0x186>
    59ce:	97ba                	add	a5,a5,a4
    59d0:	04000737          	lui	a4,0x4000
    59d4:	8f7d                	and	a4,a4,a5
    59d6:	4689                	li	a3,2
    59d8:	4905                	li	s2,1
    59da:	fb45                	bnez	a4,598a <__addsf3+0x2ae>
    59dc:	bbc1                	j	57ac <__addsf3+0xd0>
    59de:	8f99                	sub	a5,a5,a4
    59e0:	4905                	li	s2,1
    59e2:	b3c1                	j	57a2 <__addsf3+0xc6>
    59e4:	ea078de3          	beqz	a5,589e <__addsf3+0x1c2>
    59e8:	e60710e3          	bnez	a4,5848 <__addsf3+0x16c>
    59ec:	838d                	srli	a5,a5,0x3
    59ee:	bda1                	j	5846 <__addsf3+0x16a>
    59f0:	02000593          	li	a1,32
    59f4:	8d95                	sub	a1,a1,a3
    59f6:	00b795b3          	sll	a1,a5,a1
    59fa:	00d7d6b3          	srl	a3,a5,a3
    59fe:	00b037b3          	snez	a5,a1
    5a02:	8edd                	or	a3,a3,a5
    5a04:	00e687b3          	add	a5,a3,a4
    5a08:	8932                	mv	s2,a2
    5a0a:	b7a5                	j	5972 <__addsf3+0x296>
    5a0c:	d721                	beqz	a4,5954 <__addsf3+0x278>
    5a0e:	84ae                	mv	s1,a1
    5a10:	87ba                	mv	a5,a4
    5a12:	b5f5                	j	58fe <__addsf3+0x222>
    5a14:	40f707b3          	sub	a5,a4,a5
    5a18:	84ae                	mv	s1,a1
    5a1a:	4905                	li	s2,1
    5a1c:	b359                	j	57a2 <__addsf3+0xc6>
    5a1e:	87ba                	mv	a5,a4
    5a20:	bdf9                	j	58fe <__addsf3+0x222>
    5a22:	97ba                	add	a5,a5,a4
    5a24:	04000637          	lui	a2,0x4000
    5a28:	8e7d                	and	a2,a2,a5
    5a2a:	4681                	li	a3,0
    5a2c:	da59                	beqz	a2,59c2 <__addsf3+0x2e6>
    5a2e:	fc000737          	lui	a4,0xfc000
    5a32:	177d                	addi	a4,a4,-1 # fbffffff <_eusrstack+0xdbffb0ff>
    5a34:	8ff9                	and	a5,a5,a4
    5a36:	4685                	li	a3,1
    5a38:	838d                	srli	a5,a5,0x3
    5a3a:	b5e1                	j	5902 <__addsf3+0x226>
    5a3c:	87aa                	mv	a5,a0
    5a3e:	d919                	beqz	a0,5954 <__addsf3+0x278>
    5a40:	838d                	srli	a5,a5,0x3
    5a42:	b5c1                	j	5902 <__addsf3+0x226>

00005a44 <__divsf3>:
    5a44:	7179                	addi	sp,sp,-48
    5a46:	01755793          	srli	a5,a0,0x17
    5a4a:	d04a                	sw	s2,32(sp)
    5a4c:	ce4e                	sw	s3,28(sp)
    5a4e:	d606                	sw	ra,44(sp)
    5a50:	00951993          	slli	s3,a0,0x9
    5a54:	d422                	sw	s0,40(sp)
    5a56:	d226                	sw	s1,36(sp)
    5a58:	cc52                	sw	s4,24(sp)
    5a5a:	ca56                	sw	s5,20(sp)
    5a5c:	c85a                	sw	s6,16(sp)
    5a5e:	0ff7f793          	zext.b	a5,a5
    5a62:	0099d993          	srli	s3,s3,0x9
    5a66:	01f55913          	srli	s2,a0,0x1f
    5a6a:	cff1                	beqz	a5,5b46 <__divsf3+0x102>
    5a6c:	0ff00713          	li	a4,255
    5a70:	0ee78163          	beq	a5,a4,5b52 <__divsf3+0x10e>
    5a74:	098e                	slli	s3,s3,0x3
    5a76:	04000737          	lui	a4,0x4000
    5a7a:	00e9e9b3          	or	s3,s3,a4
    5a7e:	f8178a93          	addi	s5,a5,-127
    5a82:	4401                	li	s0,0
    5a84:	4b01                	li	s6,0
    5a86:	0175d793          	srli	a5,a1,0x17
    5a8a:	00959a13          	slli	s4,a1,0x9
    5a8e:	0ff7f793          	zext.b	a5,a5
    5a92:	009a5a13          	srli	s4,s4,0x9
    5a96:	01f5d493          	srli	s1,a1,0x1f
    5a9a:	c7c1                	beqz	a5,5b22 <__divsf3+0xde>
    5a9c:	0ff00713          	li	a4,255
    5aa0:	0ce78063          	beq	a5,a4,5b60 <__divsf3+0x11c>
    5aa4:	0a0e                	slli	s4,s4,0x3
    5aa6:	04000737          	lui	a4,0x4000
    5aaa:	00ea6a33          	or	s4,s4,a4
    5aae:	f8178793          	addi	a5,a5,-127
    5ab2:	4601                	li	a2,0
    5ab4:	46bd                	li	a3,15
    5ab6:	00994733          	xor	a4,s2,s1
    5aba:	40fa8ab3          	sub	s5,s5,a5
    5abe:	1a86e963          	bltu	a3,s0,5c70 <__divsf3+0x22c>
    5ac2:	00001697          	auipc	a3,0x1
    5ac6:	98e68693          	addi	a3,a3,-1650 # 6450 <gcr_encode_table+0x28>
    5aca:	040a                	slli	s0,s0,0x2
    5acc:	9436                	add	s0,s0,a3
    5ace:	401c                	lw	a5,0(s0)
    5ad0:	97b6                	add	a5,a5,a3
    5ad2:	8782                	jr	a5
    5ad4:	0ff00793          	li	a5,255
    5ad8:	4681                	li	a3,0
    5ada:	50b2                	lw	ra,44(sp)
    5adc:	5422                	lw	s0,40(sp)
    5ade:	01779513          	slli	a0,a5,0x17
    5ae2:	8d55                	or	a0,a0,a3
    5ae4:	077e                	slli	a4,a4,0x1f
    5ae6:	5492                	lw	s1,36(sp)
    5ae8:	5902                	lw	s2,32(sp)
    5aea:	49f2                	lw	s3,28(sp)
    5aec:	4a62                	lw	s4,24(sp)
    5aee:	4ad2                	lw	s5,20(sp)
    5af0:	4b42                	lw	s6,16(sp)
    5af2:	8d59                	or	a0,a0,a4
    5af4:	6145                	addi	sp,sp,48
    5af6:	8082                	ret
    5af8:	478d                	li	a5,3
    5afa:	00fb0e63          	beq	s6,a5,5b16 <__divsf3+0xd2>
    5afe:	4785                	li	a5,1
    5b00:	0efb1363          	bne	s6,a5,5be6 <__divsf3+0x1a2>
    5b04:	872a                	mv	a4,a0
    5b06:	4781                	li	a5,0
    5b08:	4681                	li	a3,0
    5b0a:	bfc1                	j	5ada <__divsf3+0x96>
    5b0c:	478d                	li	a5,3
    5b0e:	8526                	mv	a0,s1
    5b10:	89d2                	mv	s3,s4
    5b12:	0cf61a63          	bne	a2,a5,5be6 <__divsf3+0x1a2>
    5b16:	4701                	li	a4,0
    5b18:	0ff00793          	li	a5,255
    5b1c:	004006b7          	lui	a3,0x400
    5b20:	bf6d                	j	5ada <__divsf3+0x96>
    5b22:	080a1c63          	bnez	s4,5bba <__divsf3+0x176>
    5b26:	00146413          	ori	s0,s0,1
    5b2a:	47b5                	li	a5,13
    5b2c:	00994733          	xor	a4,s2,s1
    5b30:	fa87e2e3          	bltu	a5,s0,5ad4 <__divsf3+0x90>
    5b34:	00001697          	auipc	a3,0x1
    5b38:	95c68693          	addi	a3,a3,-1700 # 6490 <gcr_encode_table+0x68>
    5b3c:	040a                	slli	s0,s0,0x2
    5b3e:	9436                	add	s0,s0,a3
    5b40:	401c                	lw	a5,0(s0)
    5b42:	97b6                	add	a5,a5,a3
    5b44:	8782                	jr	a5
    5b46:	04099b63          	bnez	s3,5b9c <__divsf3+0x158>
    5b4a:	4411                	li	s0,4
    5b4c:	4a81                	li	s5,0
    5b4e:	4b05                	li	s6,1
    5b50:	bf1d                	j	5a86 <__divsf3+0x42>
    5b52:	04099063          	bnez	s3,5b92 <__divsf3+0x14e>
    5b56:	4421                	li	s0,8
    5b58:	0ff00a93          	li	s5,255
    5b5c:	4b09                	li	s6,2
    5b5e:	b725                	j	5a86 <__divsf3+0x42>
    5b60:	020a1363          	bnez	s4,5b86 <__divsf3+0x142>
    5b64:	00246413          	ori	s0,s0,2
    5b68:	1475                	addi	s0,s0,-3
    5b6a:	46ad                	li	a3,11
    5b6c:	00994733          	xor	a4,s2,s1
    5b70:	f886ebe3          	bltu	a3,s0,5b06 <__divsf3+0xc2>
    5b74:	00001617          	auipc	a2,0x1
    5b78:	95460613          	addi	a2,a2,-1708 # 64c8 <gcr_encode_table+0xa0>
    5b7c:	040a                	slli	s0,s0,0x2
    5b7e:	9432                	add	s0,s0,a2
    5b80:	4014                	lw	a3,0(s0)
    5b82:	96b2                	add	a3,a3,a2
    5b84:	8682                	jr	a3
    5b86:	00346413          	ori	s0,s0,3
    5b8a:	0ff00793          	li	a5,255
    5b8e:	460d                	li	a2,3
    5b90:	b715                	j	5ab4 <__divsf3+0x70>
    5b92:	4431                	li	s0,12
    5b94:	0ff00a93          	li	s5,255
    5b98:	4b0d                	li	s6,3
    5b9a:	b5f5                	j	5a86 <__divsf3+0x42>
    5b9c:	854e                	mv	a0,s3
    5b9e:	c62e                	sw	a1,12(sp)
    5ba0:	27e9                	jal	636a <__clzsi2>
    5ba2:	ffb50793          	addi	a5,a0,-5 # 3fffffb <_data_lma+0x3ff9a03>
    5ba6:	00f999b3          	sll	s3,s3,a5
    5baa:	f8a00793          	li	a5,-118
    5bae:	45b2                	lw	a1,12(sp)
    5bb0:	40a78ab3          	sub	s5,a5,a0
    5bb4:	4401                	li	s0,0
    5bb6:	4b01                	li	s6,0
    5bb8:	b5f9                	j	5a86 <__divsf3+0x42>
    5bba:	8552                	mv	a0,s4
    5bbc:	277d                	jal	636a <__clzsi2>
    5bbe:	ffb50793          	addi	a5,a0,-5
    5bc2:	00fa1a33          	sll	s4,s4,a5
    5bc6:	f8a00793          	li	a5,-118
    5bca:	8f89                	sub	a5,a5,a0
    5bcc:	4601                	li	a2,0
    5bce:	b5dd                	j	5ab4 <__divsf3+0x70>
    5bd0:	f01a8a93          	addi	s5,s5,-255
    5bd4:	4789                	li	a5,2
    5bd6:	854a                	mv	a0,s2
    5bd8:	f2fb10e3          	bne	s6,a5,5af8 <__divsf3+0xb4>
    5bdc:	872a                	mv	a4,a0
    5bde:	0ff00793          	li	a5,255
    5be2:	4681                	li	a3,0
    5be4:	bddd                	j	5ada <__divsf3+0x96>
    5be6:	872a                	mv	a4,a0
    5be8:	07fa8793          	addi	a5,s5,127
    5bec:	04f05163          	blez	a5,5c2e <__divsf3+0x1ea>
    5bf0:	0079f693          	andi	a3,s3,7
    5bf4:	c699                	beqz	a3,5c02 <__divsf3+0x1be>
    5bf6:	00f9f693          	andi	a3,s3,15
    5bfa:	4611                	li	a2,4
    5bfc:	00c68363          	beq	a3,a2,5c02 <__divsf3+0x1be>
    5c00:	0991                	addi	s3,s3,4
    5c02:	080006b7          	lui	a3,0x8000
    5c06:	00d9f6b3          	and	a3,s3,a3
    5c0a:	ca81                	beqz	a3,5c1a <__divsf3+0x1d6>
    5c0c:	f80007b7          	lui	a5,0xf8000
    5c10:	17fd                	addi	a5,a5,-1 # f7ffffff <_eusrstack+0xd7ffb0ff>
    5c12:	00f9f9b3          	and	s3,s3,a5
    5c16:	080a8793          	addi	a5,s5,128
    5c1a:	0fe00693          	li	a3,254
    5c1e:	eaf6cbe3          	blt	a3,a5,5ad4 <__divsf3+0x90>
    5c22:	00699693          	slli	a3,s3,0x6
    5c26:	82a5                	srli	a3,a3,0x9
    5c28:	0ff7f793          	zext.b	a5,a5
    5c2c:	b57d                	j	5ada <__divsf3+0x96>
    5c2e:	4605                	li	a2,1
    5c30:	c799                	beqz	a5,5c3e <__divsf3+0x1fa>
    5c32:	8e1d                	sub	a2,a2,a5
    5c34:	45ed                	li	a1,27
    5c36:	4781                	li	a5,0
    5c38:	4681                	li	a3,0
    5c3a:	eac5c0e3          	blt	a1,a2,5ada <__divsf3+0x96>
    5c3e:	09ea8693          	addi	a3,s5,158
    5c42:	00d996b3          	sll	a3,s3,a3
    5c46:	00d036b3          	snez	a3,a3
    5c4a:	00c9d7b3          	srl	a5,s3,a2
    5c4e:	8fd5                	or	a5,a5,a3
    5c50:	0077f693          	andi	a3,a5,7
    5c54:	c699                	beqz	a3,5c62 <__divsf3+0x21e>
    5c56:	00f7f693          	andi	a3,a5,15
    5c5a:	4611                	li	a2,4
    5c5c:	00c68363          	beq	a3,a2,5c62 <__divsf3+0x21e>
    5c60:	0791                	addi	a5,a5,4
    5c62:	040006b7          	lui	a3,0x4000
    5c66:	8efd                	and	a3,a3,a5
    5c68:	cad5                	beqz	a3,5d1c <__divsf3+0x2d8>
    5c6a:	4785                	li	a5,1
    5c6c:	4681                	li	a3,0
    5c6e:	b5b5                	j	5ada <__divsf3+0x96>
    5c70:	66c1                	lui	a3,0x10
    5c72:	005a1813          	slli	a6,s4,0x5
    5c76:	16fd                	addi	a3,a3,-1 # ffff <_data_lma+0x9a07>
    5c78:	01085593          	srli	a1,a6,0x10
    5c7c:	00d876b3          	and	a3,a6,a3
    5c80:	0749f863          	bgeu	s3,s4,5cf0 <__divsf3+0x2ac>
    5c84:	02b9d633          	divu	a2,s3,a1
    5c88:	87ce                	mv	a5,s3
    5c8a:	1afd                	addi	s5,s5,-1
    5c8c:	4981                	li	s3,0
    5c8e:	02d60533          	mul	a0,a2,a3
    5c92:	02b7f7b3          	remu	a5,a5,a1
    5c96:	07c2                	slli	a5,a5,0x10
    5c98:	0137e7b3          	or	a5,a5,s3
    5c9c:	00a7f863          	bgeu	a5,a0,5cac <__divsf3+0x268>
    5ca0:	97c2                	add	a5,a5,a6
    5ca2:	fff60893          	addi	a7,a2,-1
    5ca6:	0707f663          	bgeu	a5,a6,5d12 <__divsf3+0x2ce>
    5caa:	8646                	mv	a2,a7
    5cac:	8f89                	sub	a5,a5,a0
    5cae:	02b7d533          	divu	a0,a5,a1
    5cb2:	02b7f7b3          	remu	a5,a5,a1
    5cb6:	02d506b3          	mul	a3,a0,a3
    5cba:	07c2                	slli	a5,a5,0x10
    5cbc:	02d7f263          	bgeu	a5,a3,5ce0 <__divsf3+0x29c>
    5cc0:	010785b3          	add	a1,a5,a6
    5cc4:	00f5b8b3          	sltu	a7,a1,a5
    5cc8:	fff50313          	addi	t1,a0,-1
    5ccc:	87ae                	mv	a5,a1
    5cce:	00089863          	bnez	a7,5cde <__divsf3+0x29a>
    5cd2:	00d5f663          	bgeu	a1,a3,5cde <__divsf3+0x29a>
    5cd6:	1579                	addi	a0,a0,-2
    5cd8:	010587b3          	add	a5,a1,a6
    5cdc:	a011                	j	5ce0 <__divsf3+0x29c>
    5cde:	851a                	mv	a0,t1
    5ce0:	0642                	slli	a2,a2,0x10
    5ce2:	8f95                	sub	a5,a5,a3
    5ce4:	8e49                	or	a2,a2,a0
    5ce6:	00f037b3          	snez	a5,a5
    5cea:	00f669b3          	or	s3,a2,a5
    5cee:	bded                	j	5be8 <__divsf3+0x1a4>
    5cf0:	0019d793          	srli	a5,s3,0x1
    5cf4:	02b7d633          	divu	a2,a5,a1
    5cf8:	09fe                	slli	s3,s3,0x1f
    5cfa:	0109d993          	srli	s3,s3,0x10
    5cfe:	02d60533          	mul	a0,a2,a3
    5d02:	bf41                	j	5c92 <__divsf3+0x24e>
    5d04:	8526                	mv	a0,s1
    5d06:	872a                	mv	a4,a0
    5d08:	bbfd                	j	5b06 <__divsf3+0xc2>
    5d0a:	4701                	li	a4,0
    5d0c:	004006b7          	lui	a3,0x400
    5d10:	b3e9                	j	5ada <__divsf3+0x96>
    5d12:	f8a7fce3          	bgeu	a5,a0,5caa <__divsf3+0x266>
    5d16:	1679                	addi	a2,a2,-2
    5d18:	97c2                	add	a5,a5,a6
    5d1a:	bf49                	j	5cac <__divsf3+0x268>
    5d1c:	079a                	slli	a5,a5,0x6
    5d1e:	0097d693          	srli	a3,a5,0x9
    5d22:	4781                	li	a5,0
    5d24:	bb5d                	j	5ada <__divsf3+0x96>
    5d26:	8526                	mv	a0,s1
    5d28:	bd55                	j	5bdc <__divsf3+0x198>

00005d2a <__gesf2>:
    5d2a:	01755613          	srli	a2,a0,0x17
    5d2e:	00800737          	lui	a4,0x800
    5d32:	177d                	addi	a4,a4,-1 # 7fffff <_data_lma+0x7f9a07>
    5d34:	0175d693          	srli	a3,a1,0x17
    5d38:	0ff67613          	zext.b	a2,a2
    5d3c:	0ff00813          	li	a6,255
    5d40:	00a778b3          	and	a7,a4,a0
    5d44:	01f55793          	srli	a5,a0,0x1f
    5d48:	8f6d                	and	a4,a4,a1
    5d4a:	0ff6f513          	zext.b	a0,a3
    5d4e:	81fd                	srli	a1,a1,0x1f
    5d50:	03060563          	beq	a2,a6,5d7a <__gesf2+0x50>
    5d54:	01050a63          	beq	a0,a6,5d68 <__gesf2+0x3e>
    5d58:	ea05                	bnez	a2,5d88 <__gesf2+0x5e>
    5d5a:	e909                	bnez	a0,5d6c <__gesf2+0x42>
    5d5c:	c339                	beqz	a4,5da2 <__gesf2+0x78>
    5d5e:	04089e63          	bnez	a7,5dba <__gesf2+0x90>
    5d62:	c9a1                	beqz	a1,5db2 <__gesf2+0x88>
    5d64:	852e                	mv	a0,a1
    5d66:	8082                	ret
    5d68:	e739                	bnez	a4,5db6 <__gesf2+0x8c>
    5d6a:	e219                	bnez	a2,5d70 <__gesf2+0x46>
    5d6c:	fe088be3          	beqz	a7,5d62 <__gesf2+0x38>
    5d70:	00b79963          	bne	a5,a1,5d82 <__gesf2+0x58>
    5d74:	cf9d                	beqz	a5,5db2 <__gesf2+0x88>
    5d76:	853e                	mv	a0,a5
    5d78:	8082                	ret
    5d7a:	02089e63          	bnez	a7,5db6 <__gesf2+0x8c>
    5d7e:	02c50563          	beq	a0,a2,5da8 <__gesf2+0x7e>
    5d82:	4505                	li	a0,1
    5d84:	e79d                	bnez	a5,5db2 <__gesf2+0x88>
    5d86:	8082                	ret
    5d88:	dd6d                	beqz	a0,5d82 <__gesf2+0x58>
    5d8a:	feb79ce3          	bne	a5,a1,5d82 <__gesf2+0x58>
    5d8e:	fec54ae3          	blt	a0,a2,5d82 <__gesf2+0x58>
    5d92:	fea641e3          	blt	a2,a0,5d74 <__gesf2+0x4a>
    5d96:	ff1766e3          	bltu	a4,a7,5d82 <__gesf2+0x58>
    5d9a:	4501                	li	a0,0
    5d9c:	fce8ece3          	bltu	a7,a4,5d74 <__gesf2+0x4a>
    5da0:	8082                	ret
    5da2:	fe0890e3          	bnez	a7,5d82 <__gesf2+0x58>
    5da6:	8082                	ret
    5da8:	e719                	bnez	a4,5db6 <__gesf2+0x8c>
    5daa:	fcb79ce3          	bne	a5,a1,5d82 <__gesf2+0x58>
    5dae:	4501                	li	a0,0
    5db0:	8082                	ret
    5db2:	557d                	li	a0,-1
    5db4:	8082                	ret
    5db6:	5579                	li	a0,-2
    5db8:	8082                	ret
    5dba:	fcb78ee3          	beq	a5,a1,5d96 <__gesf2+0x6c>
    5dbe:	b7d1                	j	5d82 <__gesf2+0x58>

00005dc0 <__lesf2>:
    5dc0:	01755613          	srli	a2,a0,0x17
    5dc4:	00800737          	lui	a4,0x800
    5dc8:	177d                	addi	a4,a4,-1 # 7fffff <_data_lma+0x7f9a07>
    5dca:	0175d693          	srli	a3,a1,0x17
    5dce:	0ff67613          	zext.b	a2,a2
    5dd2:	0ff00813          	li	a6,255
    5dd6:	00a778b3          	and	a7,a4,a0
    5dda:	01f55793          	srli	a5,a0,0x1f
    5dde:	8f6d                	and	a4,a4,a1
    5de0:	0ff6f513          	zext.b	a0,a3
    5de4:	81fd                	srli	a1,a1,0x1f
    5de6:	03060663          	beq	a2,a6,5e12 <__lesf2+0x52>
    5dea:	01050a63          	beq	a0,a6,5dfe <__lesf2+0x3e>
    5dee:	ee05                	bnez	a2,5e26 <__lesf2+0x66>
    5df0:	e911                	bnez	a0,5e04 <__lesf2+0x44>
    5df2:	cb29                	beqz	a4,5e44 <__lesf2+0x84>
    5df4:	04089f63          	bnez	a7,5e52 <__lesf2+0x92>
    5df8:	c9b9                	beqz	a1,5e4e <__lesf2+0x8e>
    5dfa:	852e                	mv	a0,a1
    5dfc:	8082                	ret
    5dfe:	4509                	li	a0,2
    5e00:	eb01                	bnez	a4,5e10 <__lesf2+0x50>
    5e02:	e219                	bnez	a2,5e08 <__lesf2+0x48>
    5e04:	fe088ae3          	beqz	a7,5df8 <__lesf2+0x38>
    5e08:	02b78b63          	beq	a5,a1,5e3e <__lesf2+0x7e>
    5e0c:	4505                	li	a0,1
    5e0e:	e3a1                	bnez	a5,5e4e <__lesf2+0x8e>
    5e10:	8082                	ret
    5e12:	02089c63          	bnez	a7,5e4a <__lesf2+0x8a>
    5e16:	fec51be3          	bne	a0,a2,5e0c <__lesf2+0x4c>
    5e1a:	4509                	li	a0,2
    5e1c:	fb75                	bnez	a4,5e10 <__lesf2+0x50>
    5e1e:	feb797e3          	bne	a5,a1,5e0c <__lesf2+0x4c>
    5e22:	4501                	li	a0,0
    5e24:	8082                	ret
    5e26:	d17d                	beqz	a0,5e0c <__lesf2+0x4c>
    5e28:	feb792e3          	bne	a5,a1,5e0c <__lesf2+0x4c>
    5e2c:	fec540e3          	blt	a0,a2,5e0c <__lesf2+0x4c>
    5e30:	00a64763          	blt	a2,a0,5e3e <__lesf2+0x7e>
    5e34:	fd176ce3          	bltu	a4,a7,5e0c <__lesf2+0x4c>
    5e38:	4501                	li	a0,0
    5e3a:	fce8fbe3          	bgeu	a7,a4,5e10 <__lesf2+0x50>
    5e3e:	cb81                	beqz	a5,5e4e <__lesf2+0x8e>
    5e40:	853e                	mv	a0,a5
    5e42:	8082                	ret
    5e44:	fc0894e3          	bnez	a7,5e0c <__lesf2+0x4c>
    5e48:	8082                	ret
    5e4a:	4509                	li	a0,2
    5e4c:	8082                	ret
    5e4e:	557d                	li	a0,-1
    5e50:	8082                	ret
    5e52:	feb781e3          	beq	a5,a1,5e34 <__lesf2+0x74>
    5e56:	bf5d                	j	5e0c <__lesf2+0x4c>

00005e58 <__mulsf3>:
    5e58:	7179                	addi	sp,sp,-48
    5e5a:	01755793          	srli	a5,a0,0x17
    5e5e:	cc52                	sw	s4,24(sp)
    5e60:	ca56                	sw	s5,20(sp)
    5e62:	00951713          	slli	a4,a0,0x9
    5e66:	d606                	sw	ra,44(sp)
    5e68:	d422                	sw	s0,40(sp)
    5e6a:	d226                	sw	s1,36(sp)
    5e6c:	d04a                	sw	s2,32(sp)
    5e6e:	ce4e                	sw	s3,28(sp)
    5e70:	c85a                	sw	s6,16(sp)
    5e72:	0ff7f793          	zext.b	a5,a5
    5e76:	00975a93          	srli	s5,a4,0x9
    5e7a:	01f55a13          	srli	s4,a0,0x1f
    5e7e:	10078b63          	beqz	a5,5f94 <__mulsf3+0x13c>
    5e82:	0ff00713          	li	a4,255
    5e86:	10e78d63          	beq	a5,a4,5fa0 <__mulsf3+0x148>
    5e8a:	003a9713          	slli	a4,s5,0x3
    5e8e:	040006b7          	lui	a3,0x4000
    5e92:	00d76ab3          	or	s5,a4,a3
    5e96:	f8178493          	addi	s1,a5,-127
    5e9a:	4901                	li	s2,0
    5e9c:	4b01                	li	s6,0
    5e9e:	0175d793          	srli	a5,a1,0x17
    5ea2:	00959413          	slli	s0,a1,0x9
    5ea6:	0ff7f793          	zext.b	a5,a5
    5eaa:	8025                	srli	s0,s0,0x9
    5eac:	01f5d993          	srli	s3,a1,0x1f
    5eb0:	c7f9                	beqz	a5,5f7e <__mulsf3+0x126>
    5eb2:	0ff00713          	li	a4,255
    5eb6:	06e78263          	beq	a5,a4,5f1a <__mulsf3+0xc2>
    5eba:	f8178793          	addi	a5,a5,-127
    5ebe:	00978533          	add	a0,a5,s1
    5ec2:	040e                	slli	s0,s0,0x3
    5ec4:	04000737          	lui	a4,0x4000
    5ec8:	47a9                	li	a5,10
    5eca:	8c59                	or	s0,s0,a4
    5ecc:	4681                	li	a3,0
    5ece:	00150493          	addi	s1,a0,1
    5ed2:	0f27cf63          	blt	a5,s2,5fd0 <__mulsf3+0x178>
    5ed6:	013a45b3          	xor	a1,s4,s3
    5eda:	4709                	li	a4,2
    5edc:	882e                	mv	a6,a1
    5ede:	05274c63          	blt	a4,s2,5f36 <__mulsf3+0xde>
    5ee2:	197d                	addi	s2,s2,-1
    5ee4:	4605                	li	a2,1
    5ee6:	13266c63          	bltu	a2,s2,601e <__mulsf3+0x1c6>
    5eea:	0ce68263          	beq	a3,a4,5fae <__mulsf3+0x156>
    5eee:	4785                	li	a5,1
    5ef0:	85c2                	mv	a1,a6
    5ef2:	06f69463          	bne	a3,a5,5f5a <__mulsf3+0x102>
    5ef6:	4781                	li	a5,0
    5ef8:	4701                	li	a4,0
    5efa:	50b2                	lw	ra,44(sp)
    5efc:	5422                	lw	s0,40(sp)
    5efe:	01779513          	slli	a0,a5,0x17
    5f02:	8d59                	or	a0,a0,a4
    5f04:	01f59793          	slli	a5,a1,0x1f
    5f08:	5492                	lw	s1,36(sp)
    5f0a:	5902                	lw	s2,32(sp)
    5f0c:	49f2                	lw	s3,28(sp)
    5f0e:	4a62                	lw	s4,24(sp)
    5f10:	4ad2                	lw	s5,20(sp)
    5f12:	4b42                	lw	s6,16(sp)
    5f14:	8d5d                	or	a0,a0,a5
    5f16:	6145                	addi	sp,sp,48
    5f18:	8082                	ret
    5f1a:	0ff48513          	addi	a0,s1,255
    5f1e:	cc49                	beqz	s0,5fb8 <__mulsf3+0x160>
    5f20:	013a45b3          	xor	a1,s4,s3
    5f24:	00396913          	ori	s2,s2,3
    5f28:	4729                	li	a4,10
    5f2a:	882e                	mv	a6,a1
    5f2c:	10048493          	addi	s1,s1,256
    5f30:	1f274763          	blt	a4,s2,611e <__mulsf3+0x2c6>
    5f34:	468d                	li	a3,3
    5f36:	4705                	li	a4,1
    5f38:	01271733          	sll	a4,a4,s2
    5f3c:	53077613          	andi	a2,a4,1328
    5f40:	ce19                	beqz	a2,5f5e <__mulsf3+0x106>
    5f42:	4789                	li	a5,2
    5f44:	06fb0563          	beq	s6,a5,5fae <__mulsf3+0x156>
    5f48:	478d                	li	a5,3
    5f4a:	02fb0463          	beq	s6,a5,5f72 <__mulsf3+0x11a>
    5f4e:	86da                	mv	a3,s6
    5f50:	4785                	li	a5,1
    5f52:	8456                	mv	s0,s5
    5f54:	85c2                	mv	a1,a6
    5f56:	faf680e3          	beq	a3,a5,5ef6 <__mulsf3+0x9e>
    5f5a:	8526                	mv	a0,s1
    5f5c:	a235                	j	6088 <__mulsf3+0x230>
    5f5e:	24077793          	andi	a5,a4,576
    5f62:	eb81                	bnez	a5,5f72 <__mulsf3+0x11a>
    5f64:	08877713          	andi	a4,a4,136
    5f68:	cb5d                	beqz	a4,601e <__mulsf3+0x1c6>
    5f6a:	884e                	mv	a6,s3
    5f6c:	8aa2                	mv	s5,s0
    5f6e:	8b36                	mv	s6,a3
    5f70:	bfc9                	j	5f42 <__mulsf3+0xea>
    5f72:	4581                	li	a1,0
    5f74:	0ff00793          	li	a5,255
    5f78:	00400737          	lui	a4,0x400
    5f7c:	bfbd                	j	5efa <__mulsf3+0xa2>
    5f7e:	ec3d                	bnez	s0,5ffc <__mulsf3+0x1a4>
    5f80:	8526                	mv	a0,s1
    5f82:	00196913          	ori	s2,s2,1
    5f86:	47a9                	li	a5,10
    5f88:	4685                	li	a3,1
    5f8a:	00150493          	addi	s1,a0,1
    5f8e:	f527d4e3          	bge	a5,s2,5ed6 <__mulsf3+0x7e>
    5f92:	a83d                	j	5fd0 <__mulsf3+0x178>
    5f94:	040a9563          	bnez	s5,5fde <__mulsf3+0x186>
    5f98:	4911                	li	s2,4
    5f9a:	4481                	li	s1,0
    5f9c:	4b05                	li	s6,1
    5f9e:	b701                	j	5e9e <__mulsf3+0x46>
    5fa0:	020a9a63          	bnez	s5,5fd4 <__mulsf3+0x17c>
    5fa4:	4921                	li	s2,8
    5fa6:	0ff00493          	li	s1,255
    5faa:	4b09                	li	s6,2
    5fac:	bdcd                	j	5e9e <__mulsf3+0x46>
    5fae:	85c2                	mv	a1,a6
    5fb0:	0ff00793          	li	a5,255
    5fb4:	4701                	li	a4,0
    5fb6:	b791                	j	5efa <__mulsf3+0xa2>
    5fb8:	00296913          	ori	s2,s2,2
    5fbc:	47a9                	li	a5,10
    5fbe:	10048493          	addi	s1,s1,256
    5fc2:	4739                	li	a4,14
    5fc4:	4689                	li	a3,2
    5fc6:	f127d8e3          	bge	a5,s2,5ed6 <__mulsf3+0x7e>
    5fca:	47ad                	li	a5,11
    5fcc:	f8f70fe3          	beq	a4,a5,5f6a <__mulsf3+0x112>
    5fd0:	8852                	mv	a6,s4
    5fd2:	bf85                	j	5f42 <__mulsf3+0xea>
    5fd4:	4931                	li	s2,12
    5fd6:	0ff00493          	li	s1,255
    5fda:	4b0d                	li	s6,3
    5fdc:	b5c9                	j	5e9e <__mulsf3+0x46>
    5fde:	8556                	mv	a0,s5
    5fe0:	c62e                	sw	a1,12(sp)
    5fe2:	2661                	jal	636a <__clzsi2>
    5fe4:	ffb50793          	addi	a5,a0,-5
    5fe8:	00fa9ab3          	sll	s5,s5,a5
    5fec:	f8a00793          	li	a5,-118
    5ff0:	45b2                	lw	a1,12(sp)
    5ff2:	40a784b3          	sub	s1,a5,a0
    5ff6:	4901                	li	s2,0
    5ff8:	4b01                	li	s6,0
    5ffa:	b555                	j	5e9e <__mulsf3+0x46>
    5ffc:	8522                	mv	a0,s0
    5ffe:	26b5                	jal	636a <__clzsi2>
    6000:	40a487b3          	sub	a5,s1,a0
    6004:	ffb50713          	addi	a4,a0,-5
    6008:	f8a78513          	addi	a0,a5,-118
    600c:	47a9                	li	a5,10
    600e:	00e41433          	sll	s0,s0,a4
    6012:	4681                	li	a3,0
    6014:	00150493          	addi	s1,a0,1
    6018:	eb27dfe3          	bge	a5,s2,5ed6 <__mulsf3+0x7e>
    601c:	bf55                	j	5fd0 <__mulsf3+0x178>
    601e:	68c1                	lui	a7,0x10
    6020:	fff88793          	addi	a5,a7,-1 # ffff <_data_lma+0x9a07>
    6024:	010ad613          	srli	a2,s5,0x10
    6028:	01045813          	srli	a6,s0,0x10
    602c:	00fafab3          	and	s5,s5,a5
    6030:	8fe1                	and	a5,a5,s0
    6032:	035786b3          	mul	a3,a5,s5
    6036:	02f607b3          	mul	a5,a2,a5
    603a:	0106d713          	srli	a4,a3,0x10
    603e:	03580ab3          	mul	s5,a6,s5
    6042:	9abe                	add	s5,s5,a5
    6044:	9756                	add	a4,a4,s5
    6046:	03060633          	mul	a2,a2,a6
    604a:	00f77363          	bgeu	a4,a5,6050 <__mulsf3+0x1f8>
    604e:	9646                	add	a2,a2,a7
    6050:	6841                	lui	a6,0x10
    6052:	187d                	addi	a6,a6,-1 # ffff <_data_lma+0x9a07>
    6054:	010777b3          	and	a5,a4,a6
    6058:	0106f6b3          	and	a3,a3,a6
    605c:	07c2                	slli	a5,a5,0x10
    605e:	97b6                	add	a5,a5,a3
    6060:	00679693          	slli	a3,a5,0x6
    6064:	01075413          	srli	s0,a4,0x10
    6068:	83e9                	srli	a5,a5,0x1a
    606a:	00d03733          	snez	a4,a3
    606e:	9432                	add	s0,s0,a2
    6070:	8fd9                	or	a5,a5,a4
    6072:	041a                	slli	s0,s0,0x6
    6074:	8c5d                	or	s0,s0,a5
    6076:	080007b7          	lui	a5,0x8000
    607a:	8fe1                	and	a5,a5,s0
    607c:	c791                	beqz	a5,6088 <__mulsf3+0x230>
    607e:	00145793          	srli	a5,s0,0x1
    6082:	8805                	andi	s0,s0,1
    6084:	8c5d                	or	s0,s0,a5
    6086:	8526                	mv	a0,s1
    6088:	07f50793          	addi	a5,a0,127
    608c:	02f05f63          	blez	a5,60ca <__mulsf3+0x272>
    6090:	00747713          	andi	a4,s0,7
    6094:	c719                	beqz	a4,60a2 <__mulsf3+0x24a>
    6096:	00f47713          	andi	a4,s0,15
    609a:	4691                	li	a3,4
    609c:	00d70363          	beq	a4,a3,60a2 <__mulsf3+0x24a>
    60a0:	0411                	addi	s0,s0,4
    60a2:	08000737          	lui	a4,0x8000
    60a6:	8f61                	and	a4,a4,s0
    60a8:	c719                	beqz	a4,60b6 <__mulsf3+0x25e>
    60aa:	f80007b7          	lui	a5,0xf8000
    60ae:	17fd                	addi	a5,a5,-1 # f7ffffff <_eusrstack+0xd7ffb0ff>
    60b0:	8c7d                	and	s0,s0,a5
    60b2:	08050793          	addi	a5,a0,128
    60b6:	0fe00713          	li	a4,254
    60ba:	04f74963          	blt	a4,a5,610c <__mulsf3+0x2b4>
    60be:	00641713          	slli	a4,s0,0x6
    60c2:	8325                	srli	a4,a4,0x9
    60c4:	0ff7f793          	zext.b	a5,a5
    60c8:	bd0d                	j	5efa <__mulsf3+0xa2>
    60ca:	4685                	li	a3,1
    60cc:	c799                	beqz	a5,60da <__mulsf3+0x282>
    60ce:	8e9d                	sub	a3,a3,a5
    60d0:	466d                	li	a2,27
    60d2:	4781                	li	a5,0
    60d4:	4701                	li	a4,0
    60d6:	e2d642e3          	blt	a2,a3,5efa <__mulsf3+0xa2>
    60da:	09e50713          	addi	a4,a0,158
    60de:	00e41733          	sll	a4,s0,a4
    60e2:	00e03733          	snez	a4,a4
    60e6:	00d457b3          	srl	a5,s0,a3
    60ea:	8fd9                	or	a5,a5,a4
    60ec:	0077f713          	andi	a4,a5,7
    60f0:	c719                	beqz	a4,60fe <__mulsf3+0x2a6>
    60f2:	00f7f713          	andi	a4,a5,15
    60f6:	4691                	li	a3,4
    60f8:	00d70363          	beq	a4,a3,60fe <__mulsf3+0x2a6>
    60fc:	0791                	addi	a5,a5,4
    60fe:	04000737          	lui	a4,0x4000
    6102:	8f7d                	and	a4,a4,a5
    6104:	cb01                	beqz	a4,6114 <__mulsf3+0x2bc>
    6106:	4785                	li	a5,1
    6108:	4701                	li	a4,0
    610a:	bbc5                	j	5efa <__mulsf3+0xa2>
    610c:	0ff00793          	li	a5,255
    6110:	4701                	li	a4,0
    6112:	b3e5                	j	5efa <__mulsf3+0xa2>
    6114:	079a                	slli	a5,a5,0x6
    6116:	0097d713          	srli	a4,a5,0x9
    611a:	4781                	li	a5,0
    611c:	bbf9                	j	5efa <__mulsf3+0xa2>
    611e:	46bd                	li	a3,15
    6120:	4581                	li	a1,0
    6122:	00400737          	lui	a4,0x400
    6126:	dcd90ae3          	beq	s2,a3,5efa <__mulsf3+0xa2>
    612a:	472d                	li	a4,11
    612c:	468d                	li	a3,3
    612e:	bd71                	j	5fca <__mulsf3+0x172>

00006130 <__fixsfsi>:
    6130:	00800637          	lui	a2,0x800
    6134:	01755713          	srli	a4,a0,0x17
    6138:	fff60793          	addi	a5,a2,-1 # 7fffff <_data_lma+0x7f9a07>
    613c:	0ff77713          	zext.b	a4,a4
    6140:	07e00593          	li	a1,126
    6144:	00a7f6b3          	and	a3,a5,a0
    6148:	01f55793          	srli	a5,a0,0x1f
    614c:	00e5db63          	bge	a1,a4,6162 <__fixsfsi+0x32>
    6150:	09d00593          	li	a1,157
    6154:	00e5d963          	bge	a1,a4,6166 <__fixsfsi+0x36>
    6158:	80000537          	lui	a0,0x80000
    615c:	157d                	addi	a0,a0,-1 # 7fffffff <_eusrstack+0x5fffb0ff>
    615e:	953e                	add	a0,a0,a5
    6160:	8082                	ret
    6162:	4501                	li	a0,0
    6164:	8082                	ret
    6166:	09500593          	li	a1,149
    616a:	8ed1                	or	a3,a3,a2
    616c:	00e5cd63          	blt	a1,a4,6186 <__fixsfsi+0x56>
    6170:	09600613          	li	a2,150
    6174:	40e60733          	sub	a4,a2,a4
    6178:	00e6d6b3          	srl	a3,a3,a4
    617c:	40d00533          	neg	a0,a3
    6180:	f3f5                	bnez	a5,6164 <__fixsfsi+0x34>
    6182:	8536                	mv	a0,a3
    6184:	8082                	ret
    6186:	f6a70713          	addi	a4,a4,-150 # 3fff6a <_data_lma+0x3f9972>
    618a:	00e696b3          	sll	a3,a3,a4
    618e:	b7fd                	j	617c <__fixsfsi+0x4c>

00006190 <__fixunssfsi>:
    6190:	01755713          	srli	a4,a0,0x17
    6194:	00800637          	lui	a2,0x800
    6198:	fff60793          	addi	a5,a2,-1 # 7fffff <_data_lma+0x7f9a07>
    619c:	0ff77713          	zext.b	a4,a4
    61a0:	07e00593          	li	a1,126
    61a4:	00a7f6b3          	and	a3,a5,a0
    61a8:	01f55793          	srli	a5,a0,0x1f
    61ac:	4501                	li	a0,0
    61ae:	00e5d363          	bge	a1,a4,61b4 <__fixunssfsi+0x24>
    61b2:	c391                	beqz	a5,61b6 <__fixunssfsi+0x26>
    61b4:	8082                	ret
    61b6:	09e00793          	li	a5,158
    61ba:	557d                	li	a0,-1
    61bc:	fee7cce3          	blt	a5,a4,61b4 <__fixunssfsi+0x24>
    61c0:	09500593          	li	a1,149
    61c4:	00c6e7b3          	or	a5,a3,a2
    61c8:	00e5d763          	bge	a1,a4,61d6 <__fixunssfsi+0x46>
    61cc:	f6a70713          	addi	a4,a4,-150
    61d0:	00e79533          	sll	a0,a5,a4
    61d4:	8082                	ret
    61d6:	09600513          	li	a0,150
    61da:	8d19                	sub	a0,a0,a4
    61dc:	00a7d533          	srl	a0,a5,a0
    61e0:	8082                	ret

000061e2 <__floatsisf>:
    61e2:	1141                	addi	sp,sp,-16
    61e4:	c606                	sw	ra,12(sp)
    61e6:	c422                	sw	s0,8(sp)
    61e8:	c226                	sw	s1,4(sp)
    61ea:	cd15                	beqz	a0,6226 <__floatsisf+0x44>
    61ec:	41f55713          	srai	a4,a0,0x1f
    61f0:	00a74433          	xor	s0,a4,a0
    61f4:	8c19                	sub	s0,s0,a4
    61f6:	87aa                	mv	a5,a0
    61f8:	8522                	mv	a0,s0
    61fa:	01f7d493          	srli	s1,a5,0x1f
    61fe:	22b5                	jal	636a <__clzsi2>
    6200:	09e00713          	li	a4,158
    6204:	40a707b3          	sub	a5,a4,a0
    6208:	09600713          	li	a4,150
    620c:	02f74a63          	blt	a4,a5,6240 <__floatsisf+0x5e>
    6210:	4721                	li	a4,8
    6212:	08e50863          	beq	a0,a4,62a2 <__floatsisf+0xc0>
    6216:	1561                	addi	a0,a0,-8
    6218:	00a41733          	sll	a4,s0,a0
    621c:	0726                	slli	a4,a4,0x9
    621e:	8325                	srli	a4,a4,0x9
    6220:	0ff7f513          	zext.b	a0,a5
    6224:	a021                	j	622c <__floatsisf+0x4a>
    6226:	4481                	li	s1,0
    6228:	4501                	li	a0,0
    622a:	4701                	li	a4,0
    622c:	40b2                	lw	ra,12(sp)
    622e:	4422                	lw	s0,8(sp)
    6230:	055e                	slli	a0,a0,0x17
    6232:	01f49793          	slli	a5,s1,0x1f
    6236:	8d59                	or	a0,a0,a4
    6238:	4492                	lw	s1,4(sp)
    623a:	8d5d                	or	a0,a0,a5
    623c:	0141                	addi	sp,sp,16
    623e:	8082                	ret
    6240:	09900713          	li	a4,153
    6244:	04f74363          	blt	a4,a5,628a <__floatsisf+0xa8>
    6248:	4715                	li	a4,5
    624a:	ffb50693          	addi	a3,a0,-5
    624e:	00e50463          	beq	a0,a4,6256 <__floatsisf+0x74>
    6252:	00d41433          	sll	s0,s0,a3
    6256:	fc0006b7          	lui	a3,0xfc000
    625a:	16fd                	addi	a3,a3,-1 # fbffffff <_eusrstack+0xdbffb0ff>
    625c:	00747613          	andi	a2,s0,7
    6260:	00d47733          	and	a4,s0,a3
    6264:	ce11                	beqz	a2,6280 <__floatsisf+0x9e>
    6266:	883d                	andi	s0,s0,15
    6268:	4611                	li	a2,4
    626a:	00c40b63          	beq	s0,a2,6280 <__floatsisf+0x9e>
    626e:	0711                	addi	a4,a4,4
    6270:	04000637          	lui	a2,0x4000
    6274:	8e79                	and	a2,a2,a4
    6276:	c609                	beqz	a2,6280 <__floatsisf+0x9e>
    6278:	09f00793          	li	a5,159
    627c:	8f75                	and	a4,a4,a3
    627e:	8f89                	sub	a5,a5,a0
    6280:	071a                	slli	a4,a4,0x6
    6282:	8325                	srli	a4,a4,0x9
    6284:	0ff7f513          	zext.b	a0,a5
    6288:	b755                	j	622c <__floatsisf+0x4a>
    628a:	01b50713          	addi	a4,a0,27
    628e:	4695                	li	a3,5
    6290:	00e41733          	sll	a4,s0,a4
    6294:	8e89                	sub	a3,a3,a0
    6296:	00d45433          	srl	s0,s0,a3
    629a:	00e03733          	snez	a4,a4
    629e:	8c59                	or	s0,s0,a4
    62a0:	bf5d                	j	6256 <__floatsisf+0x74>
    62a2:	0426                	slli	s0,s0,0x9
    62a4:	00945713          	srli	a4,s0,0x9
    62a8:	09600513          	li	a0,150
    62ac:	b741                	j	622c <__floatsisf+0x4a>

000062ae <__floatunsisf>:
    62ae:	cd0d                	beqz	a0,62e8 <__floatunsisf+0x3a>
    62b0:	1141                	addi	sp,sp,-16
    62b2:	c422                	sw	s0,8(sp)
    62b4:	c606                	sw	ra,12(sp)
    62b6:	842a                	mv	s0,a0
    62b8:	284d                	jal	636a <__clzsi2>
    62ba:	09e00793          	li	a5,158
    62be:	8f89                	sub	a5,a5,a0
    62c0:	09600713          	li	a4,150
    62c4:	02f74763          	blt	a4,a5,62f2 <__floatunsisf+0x44>
    62c8:	4721                	li	a4,8
    62ca:	08e50a63          	beq	a0,a4,635e <__floatunsisf+0xb0>
    62ce:	1561                	addi	a0,a0,-8
    62d0:	00a41733          	sll	a4,s0,a0
    62d4:	0726                	slli	a4,a4,0x9
    62d6:	8325                	srli	a4,a4,0x9
    62d8:	0ff7f513          	zext.b	a0,a5
    62dc:	40b2                	lw	ra,12(sp)
    62de:	4422                	lw	s0,8(sp)
    62e0:	055e                	slli	a0,a0,0x17
    62e2:	8d59                	or	a0,a0,a4
    62e4:	0141                	addi	sp,sp,16
    62e6:	8082                	ret
    62e8:	4501                	li	a0,0
    62ea:	4701                	li	a4,0
    62ec:	055e                	slli	a0,a0,0x17
    62ee:	8d59                	or	a0,a0,a4
    62f0:	8082                	ret
    62f2:	09900713          	li	a4,153
    62f6:	04f74863          	blt	a4,a5,6346 <__floatunsisf+0x98>
    62fa:	4715                	li	a4,5
    62fc:	ffb50693          	addi	a3,a0,-5
    6300:	00e50463          	beq	a0,a4,6308 <__floatunsisf+0x5a>
    6304:	00d41433          	sll	s0,s0,a3
    6308:	fc0006b7          	lui	a3,0xfc000
    630c:	16fd                	addi	a3,a3,-1 # fbffffff <_eusrstack+0xdbffb0ff>
    630e:	00747613          	andi	a2,s0,7
    6312:	00d47733          	and	a4,s0,a3
    6316:	ce11                	beqz	a2,6332 <__floatunsisf+0x84>
    6318:	883d                	andi	s0,s0,15
    631a:	4611                	li	a2,4
    631c:	00c40b63          	beq	s0,a2,6332 <__floatunsisf+0x84>
    6320:	0711                	addi	a4,a4,4
    6322:	04000637          	lui	a2,0x4000
    6326:	8e79                	and	a2,a2,a4
    6328:	c609                	beqz	a2,6332 <__floatunsisf+0x84>
    632a:	09f00793          	li	a5,159
    632e:	8f75                	and	a4,a4,a3
    6330:	8f89                	sub	a5,a5,a0
    6332:	40b2                	lw	ra,12(sp)
    6334:	4422                	lw	s0,8(sp)
    6336:	071a                	slli	a4,a4,0x6
    6338:	0ff7f513          	zext.b	a0,a5
    633c:	8325                	srli	a4,a4,0x9
    633e:	055e                	slli	a0,a0,0x17
    6340:	8d59                	or	a0,a0,a4
    6342:	0141                	addi	sp,sp,16
    6344:	8082                	ret
    6346:	01b50713          	addi	a4,a0,27
    634a:	4695                	li	a3,5
    634c:	00e41733          	sll	a4,s0,a4
    6350:	8e89                	sub	a3,a3,a0
    6352:	00e03733          	snez	a4,a4
    6356:	00d45433          	srl	s0,s0,a3
    635a:	8c59                	or	s0,s0,a4
    635c:	b775                	j	6308 <__floatunsisf+0x5a>
    635e:	0426                	slli	s0,s0,0x9
    6360:	00945713          	srli	a4,s0,0x9
    6364:	09600513          	li	a0,150
    6368:	bf95                	j	62dc <__floatunsisf+0x2e>

0000636a <__clzsi2>:
    636a:	67c1                	lui	a5,0x10
    636c:	02f57563          	bgeu	a0,a5,6396 <__clzsi2+0x2c>
    6370:	10053793          	sltiu	a5,a0,256
    6374:	0017c793          	xori	a5,a5,1
    6378:	078e                	slli	a5,a5,0x3
    637a:	02000713          	li	a4,32
    637e:	8f1d                	sub	a4,a4,a5
    6380:	00f55533          	srl	a0,a0,a5
    6384:	00000797          	auipc	a5,0x0
    6388:	17478793          	addi	a5,a5,372 # 64f8 <__clz_tab>
    638c:	97aa                	add	a5,a5,a0
    638e:	2388                	lbu	a0,0(a5)
    6390:	40a70533          	sub	a0,a4,a0
    6394:	8082                	ret
    6396:	010007b7          	lui	a5,0x1000
    639a:	00f57f63          	bgeu	a0,a5,63b8 <__clzsi2+0x4e>
    639e:	47c1                	li	a5,16
    63a0:	00f55533          	srl	a0,a0,a5
    63a4:	00000797          	auipc	a5,0x0
    63a8:	15478793          	addi	a5,a5,340 # 64f8 <__clz_tab>
    63ac:	97aa                	add	a5,a5,a0
    63ae:	2388                	lbu	a0,0(a5)
    63b0:	4741                	li	a4,16
    63b2:	40a70533          	sub	a0,a4,a0
    63b6:	8082                	ret
    63b8:	47e1                	li	a5,24
    63ba:	00f55533          	srl	a0,a0,a5
    63be:	00000797          	auipc	a5,0x0
    63c2:	13a78793          	addi	a5,a5,314 # 64f8 <__clz_tab>
    63c6:	97aa                	add	a5,a5,a0
    63c8:	2388                	lbu	a0,0(a5)
    63ca:	4721                	li	a4,8
    63cc:	40a70533          	sub	a0,a4,a0
    63d0:	8082                	ret
    63d2:	0000                	unimp
    63d4:	1440                	addi	s0,sp,548
    63d6:	0000                	unimp
    63d8:	1452                	slli	s0,s0,0x34
    63da:	0000                	unimp
    63dc:	1458                	addi	a4,sp,548
    63de:	0000                	unimp
    63e0:	1444                	addi	s1,sp,548
    63e2:	0000                	unimp
    63e4:	145e                	slli	s0,s0,0x37
    63e6:	0000                	unimp
    63e8:	1444                	addi	s1,sp,548
    63ea:	0000                	unimp
    63ec:	1464                	addi	s1,sp,556
    63ee:	0000                	unimp
    63f0:	1474                	addi	a3,sp,556
    63f2:	0000                	unimp
    63f4:	1486                	slli	s1,s1,0x21
    63f6:	0000                	unimp
    63f8:	148c                	addi	a1,sp,608
    63fa:	0000                	unimp
    63fc:	1444                	addi	s1,sp,548
    63fe:	0000                	unimp
    6400:	1494                	addi	a3,sp,608
    6402:	0000                	unimp
    6404:	149a                	slli	s1,s1,0x26
    6406:	0000                	unimp
    6408:	14b8                	addi	a4,sp,616
    640a:	0000                	unimp
    640c:	1444                	addi	s1,sp,548
    640e:	0000                	unimp
    6410:	1444                	addi	s1,sp,548
    6412:	0000                	unimp
    6414:	1444                	addi	s1,sp,548
    6416:	0000                	unimp
    6418:	1444                	addi	s1,sp,548
    641a:	0000                	unimp
    641c:	1444                	addi	s1,sp,548
    641e:	0000                	unimp
    6420:	14c8                	addi	a0,sp,612
    6422:	0000                	unimp
    6424:	14d6                	slli	s1,s1,0x35
	...

00006428 <gcr_encode_table>:
    6428:	1b19 1312 151d 1716 091a 0b0a 0d1e 0f0e     ................
    6438:	355a 0000 3568 0000 3578 0000 3582 0000     Z5..h5..x5...5..
    6448:	358c 0000 359a 0000 f820 ffff f684 ffff     .5...5.. .......
    6458:	f6b6 ffff f6bc ffff f6b6 ffff f6c6 ffff     ................
    6468:	f6b6 ffff f6bc ffff f684 ffff f684 ffff     ................
    6478:	f6c6 ffff f6bc ffff f784 ffff f784 ffff     ................
    6488:	f784 ffff f6c6 ffff f644 ffff f644 ffff     ........D...D...
    6498:	f676 ffff f874 ffff f676 ffff f686 ffff     v...t...v.......
    64a8:	f676 ffff f874 ffff f644 ffff f644 ffff     v...t...D...D...
    64b8:	f686 ffff f874 ffff f744 ffff f744 ffff     ....t...D...D...
    64c8:	f85e ffff f63e ffff f842 ffff f63e ffff     ^...>...B...>...
    64d8:	f85e ffff f60c ffff f60c ffff f842 ffff     ^...........B...
    64e8:	f85e ffff f708 ffff f708 ffff f708 ffff     ^...............

000064f8 <__clz_tab>:
    64f8:	0100 0202 0303 0303 0404 0404 0404 0404     ................
    6508:	0505 0505 0505 0505 0505 0505 0505 0505     ................
    6518:	0606 0606 0606 0606 0606 0606 0606 0606     ................
    6528:	0606 0606 0606 0606 0606 0606 0606 0606     ................
    6538:	0707 0707 0707 0707 0707 0707 0707 0707     ................
    6548:	0707 0707 0707 0707 0707 0707 0707 0707     ................
    6558:	0707 0707 0707 0707 0707 0707 0707 0707     ................
    6568:	0707 0707 0707 0707 0707 0707 0707 0707     ................
    6578:	0808 0808 0808 0808 0808 0808 0808 0808     ................
    6588:	0808 0808 0808 0808 0808 0808 0808 0808     ................
    6598:	0808 0808 0808 0808 0808 0808 0808 0808     ................
    65a8:	0808 0808 0808 0808 0808 0808 0808 0808     ................
    65b8:	0808 0808 0808 0808 0808 0808 0808 0808     ................
    65c8:	0808 0808 0808 0808 0808 0808 0808 0808     ................
    65d8:	0808 0808 0808 0808 0808 0808 0808 0808     ................
    65e8:	0808 0808 0808 0808 0808 0808 0808 0808     ................
